(dp0
S'DT'
p1
(dp2
S'false_alarm'
p3
(lp4
F0.394
aF0.384
aF0.381
aF0.381
aF0.36
aF0.404
aF0.354
aF0.401
aF0.406
aF0.401
aF0.394
aF0.394
aF0.457
aF0.376
aF0.431
aF0.364
aF0.359
aF0.401
aF0.396
aF0.33
aF0.449
aF0.419
aF0.34
aF0.431
aF0.442
asS'recall'
p5
(lp6
F0.346
aF0.398
aF0.466
aF0.348
aF0.447
aF0.406
aF0.421
aF0.398
aF0.364
aF0.409
aF0.398
aF0.383
aF0.346
aF0.394
aF0.477
aF0.346
aF0.338
aF0.406
aF0.379
aF0.371
aF0.421
aF0.301
aF0.391
aF0.318
aF0.356
asS'precision'
p7
(lp8
F0.371
aF0.411
aF0.453
aF0.38
aF0.454
aF0.403
aF0.444
aF0.402
aF0.375
aF0.406
aF0.405
aF0.395
aF0.338
aF0.413
aF0.426
aF0.39
aF0.388
aF0.406
aF0.391
aF0.43
aF0.386
aF0.325
aF0.437
aF0.331
aF0.351
asS'accuracy'
p9
(lp10
F0.502
aF0.529
aF0.558
aF0.511
aF0.562
aF0.52
aF0.556
aF0.518
aF0.502
aF0.523
aF0.523
aF0.517
aF0.464
aF0.532
aF0.532
aF0.52
aF0.52
aF0.521
aF0.514
aF0.55
aF0.498
aF0.468
aF0.552
aF0.468
aF0.477
assS'SVM'
p11
(dp12
g3
(lp13
F0.005
aF0.005
aF0.005
aF0.03
aF0.0
aF0.005
aF0.01
aF0.015
aF0.046
aF0.041
aF0.01
aF0.0
aF0.015
aF0.0
aF0.0
aF0.0
aF0.0
aF0.0
aF0.036
aF0.0
aF0.0
aF0.0
aF0.0
aF0.0
aF0.0
asg5
(lp14
F0.015
aF0.008
aF0.008
aF0.0
aF0.0
aF0.03
aF0.023
aF0.083
aF0.091
aF0.068
aF0.015
aF0.0
aF0.008
aF0.0
aF0.0
aF0.0
aF0.0
aF0.0
aF0.015
aF0.0
aF0.0
aF0.0
aF0.0
aF0.0
aF0.0
asg7
(lp15
F0.667
aF0.5
aF0.5
aF0.0
aF0.0
aF0.8
aF0.6
aF0.786
aF0.571
aF0.529
aF0.5
aF0.0
aF0.25
aF0.0
aF0.0
aF0.0
aF0.0
aF0.0
aF0.222
aF0.0
aF0.0
aF0.0
aF0.0
aF0.0
aF0.0
asg9
(lp16
F0.601
aF0.598
aF0.597
aF0.581
aF0.599
aF0.607
aF0.601
aF0.621
aF0.608
aF0.602
aF0.598
aF0.598
aF0.591
aF0.599
aF0.599
aF0.598
aF0.598
aF0.597
aF0.584
aF0.599
aF0.598
aF0.598
aF0.597
aF0.599
aF0.599
assS'RF'
p17
(dp18
g3
(lp19
F0.283
aF0.303
aF0.254
aF0.228
aF0.218
aF0.308
aF0.278
aF0.228
aF0.259
aF0.244
aF0.308
aF0.283
aF0.299
aF0.244
aF0.325
aF0.202
aF0.283
aF0.32
aF0.198
aF0.244
aF0.293
aF0.283
aF0.305
aF0.254
aF0.33
asg5
(lp20
F0.203
aF0.346
aF0.271
aF0.265
aF0.258
aF0.241
aF0.248
aF0.263
aF0.25
aF0.273
aF0.263
aF0.203
aF0.241
aF0.235
aF0.258
aF0.218
aF0.293
aF0.241
aF0.258
aF0.28
aF0.241
aF0.226
aF0.286
aF0.197
aF0.258
asg7
(lp21
F0.325
aF0.434
aF0.419
aF0.438
aF0.442
aF0.344
aF0.375
aF0.438
aF0.393
aF0.429
aF0.365
aF0.325
aF0.352
aF0.392
aF0.347
aF0.42
aF0.411
aF0.337
aF0.466
aF0.435
aF0.356
aF0.349
aF0.388
aF0.342
aF0.343
asg9
(lp22
F0.511
aF0.556
aF0.555
aF0.568
aF0.571
aF0.511
aF0.532
aF0.567
aF0.544
aF0.562
aF0.52
aF0.511
aF0.515
aF0.547
aF0.508
aF0.565
aF0.547
aF0.503
aF0.584
aF0.565
aF0.52
aF0.52
aF0.53
aF0.526
aF0.505
assS'FFT1'
p23
(dp24
g3
(lp25
F0.056
aF0.051
aF0.051
aF0.071
aF0.091
aF0.061
aF0.076
aF0.076
aF0.091
aF0.036
aF0.076
aF0.086
aF0.041
aF0.041
aF0.061
aF0.086
aF0.076
aF0.071
aF0.041
aF0.071
aF0.071
aF0.086
aF0.081
aF0.061
aF0.046
asg5
(lp26
F0.932
aF0.962
aF0.955
aF0.955
aF0.886
aF0.932
aF0.955
aF0.925
aF0.962
aF0.955
aF0.977
aF0.947
aF0.947
aF0.924
aF0.894
aF0.962
aF0.962
aF0.955
aF0.924
aF0.924
aF0.94
aF0.932
aF0.977
aF0.939
aF0.939
asg7
(lp27
F0.423
aF0.231
aF0.438
aF0.333
aF0.357
aF0.227
aF0.425
aF0.278
aF0.356
aF0.333
aF0.15
aF0.386
aF0.375
aF0.409
aF0.438
aF0.318
aF0.328
aF0.25
aF0.491
aF0.452
aF0.545
aF0.552
aF0.412
aF0.429
aF0.467
asg9
(lp28
F0.574
aF0.598
aF0.591
aF0.581
aF0.587
aF0.559
aF0.598
aF0.579
aF0.59
aF0.587
aF0.601
aF0.583
aF0.597
aF0.556
aF0.593
aF0.589
aF0.595
aF0.573
aF0.578
aF0.587
aF0.589
aF0.544
aF0.573
aF0.581
aF0.587
ass.