(dp0
S'DT'
p1
(dp2
S'false_alarm'
p3
(lp4
F0.537
aF0.63
aF0.604
aF0.547
aF0.585
aF0.833
aF0.611
aF0.623
aF0.811
aF0.604
aF0.611
aF0.5
aF0.679
aF0.66
aF0.679
aF0.648
aF0.667
aF0.547
aF0.585
aF0.679
aF0.556
aF0.63
aF0.774
aF0.623
aF0.566
asS'recall'
p5
(lp6
F0.625
aF0.635
aF0.726
aF0.695
aF0.621
aF0.719
aF0.625
aF0.611
aF0.579
aF0.695
aF0.615
aF0.563
aF0.695
aF0.705
aF0.632
aF0.552
aF0.604
aF0.695
aF0.674
aF0.653
aF0.615
aF0.604
aF0.579
aF0.653
aF0.579
asS'precision'
p7
(lp8
F0.674
aF0.642
aF0.683
aF0.695
aF0.656
aF0.605
aF0.645
aF0.637
aF0.561
aF0.673
aF0.641
aF0.667
aF0.647
aF0.657
aF0.625
aF0.602
aF0.617
aF0.695
aF0.674
aF0.633
aF0.663
aF0.63
aF0.573
aF0.653
aF0.647
asS'accuracy'
p9
(lp10
F0.567
aF0.54
aF0.608
aF0.608
aF0.547
aF0.52
aF0.54
aF0.527
aF0.439
aF0.588
aF0.533
aF0.54
aF0.561
aF0.574
aF0.52
aF0.48
aF0.507
aF0.608
aF0.581
aF0.534
aF0.553
aF0.52
aF0.453
aF0.554
aF0.527
assS'SVM'
p11
(dp12
g3
(lp13
F1.0
aF1.0
aF1.0
aF1.0
aF1.0
aF0.944
aF0.926
aF0.943
aF1.0
aF1.0
aF0.981
aF1.0
aF1.0
aF1.0
aF1.0
aF0.944
aF0.981
aF0.925
aF0.981
aF1.0
aF1.0
aF1.0
aF0.981
aF1.0
aF1.0
asg5
(lp14
F1.0
aF1.0
aF1.0
aF1.0
aF1.0
aF0.948
aF0.927
aF0.916
aF1.0
aF0.989
aF0.99
aF1.0
aF1.0
aF1.0
aF1.0
aF0.969
aF0.969
aF0.958
aF0.979
aF0.989
aF1.0
aF1.0
aF0.968
aF1.0
aF1.0
asg7
(lp15
F0.64
aF0.64
aF0.642
aF0.642
aF0.642
aF0.641
aF0.64
aF0.635
aF0.642
aF0.639
aF0.642
aF0.64
aF0.642
aF0.642
aF0.642
aF0.646
aF0.637
aF0.65
aF0.641
aF0.639
aF0.64
aF0.64
aF0.639
aF0.642
aF0.642
asg9
(lp16
F0.64
aF0.64
aF0.642
aF0.642
aF0.642
aF0.627
aF0.62
aF0.608
aF0.642
aF0.635
aF0.64
aF0.64
aF0.642
aF0.642
aF0.642
aF0.64
aF0.627
aF0.642
aF0.635
aF0.635
aF0.64
aF0.64
aF0.628
aF0.642
aF0.642
assS'RF'
p17
(dp18
g3
(lp19
F0.741
aF0.537
aF0.566
aF0.604
aF0.66
aF0.667
aF0.648
aF0.642
aF0.698
aF0.679
aF0.759
aF0.685
aF0.698
aF0.585
aF0.792
aF0.63
aF0.667
aF0.566
aF0.528
aF0.698
aF0.667
aF0.722
aF0.792
aF0.792
aF0.736
asg5
(lp20
F0.771
aF0.719
aF0.6
aF0.684
aF0.684
aF0.729
aF0.688
aF0.526
aF0.789
aF0.695
aF0.667
aF0.625
aF0.705
aF0.579
aF0.695
aF0.729
aF0.656
aF0.642
aF0.663
aF0.695
aF0.615
aF0.719
aF0.737
aF0.737
aF0.642
asg7
(lp21
F0.649
aF0.704
aF0.655
aF0.67
aF0.65
aF0.66
aF0.653
aF0.595
aF0.67
aF0.647
aF0.61
aF0.619
aF0.644
aF0.64
aF0.611
aF0.673
aF0.636
aF0.67
aF0.692
aF0.641
aF0.621
aF0.639
aF0.625
aF0.625
aF0.61
asg9
(lp22
F0.587
aF0.627
aF0.541
aF0.581
aF0.561
aF0.587
aF0.567
aF0.466
aF0.615
aF0.561
aF0.513
aF0.513
aF0.561
aF0.52
aF0.52
aF0.6
aF0.54
aF0.568
aF0.595
aF0.554
aF0.513
aF0.56
aF0.547
aF0.547
aF0.507
assS'FFT1'
p23
(dp24
g3
(lp25
F0.056
aF0.093
aF0.057
aF0.075
aF0.038
aF0.019
aF0.111
aF0.057
aF0.094
aF0.057
aF0.093
aF0.037
aF0.113
aF0.0
aF0.113
aF0.074
aF0.074
aF0.075
aF0.075
aF0.019
aF0.037
aF0.056
aF0.0
aF0.113
aF0.113
asg5
(lp26
F0.938
aF0.917
aF0.916
aF0.958
aF0.968
aF0.979
aF0.875
aF0.926
aF0.968
aF0.937
aF0.906
aF0.969
aF0.958
aF0.968
aF0.905
aF0.927
aF0.958
aF0.905
aF0.905
aF0.979
aF0.938
aF0.938
aF0.937
aF0.916
aF0.947
asg7
(lp27
F0.636
aF0.679
aF0.593
aF0.6
aF0.6
aF0.25
aF0.8
aF0.591
aF0.625
aF0.7
aF0.674
aF0.667
aF0.3
aF0.375
aF0.571
aF0.615
aF0.75
aF1.0
aF1.0
aF0.75
aF0.8
aF0.6
aF0.683
aF0.615
aF0.5
asg9
(lp28
F0.647
aF0.633
aF0.628
aF0.622
aF0.628
aF0.613
aF0.633
aF0.628
aF0.628
aF0.601
aF0.62
aF0.64
aF0.635
aF0.635
aF0.628
aF0.607
aF0.593
aF0.635
aF0.622
aF0.622
aF0.593
aF0.6
aF0.595
aF0.581
aF0.608
ass.