(dp0
S'DT'
p1
(dp2
S'false_alarm'
p3
(lp4
F0.524
aF0.493
aF0.457
aF0.516
aF0.457
aF0.499
aF0.466
aF0.501
aF0.521
aF0.496
aF0.498
aF0.505
aF0.555
aF0.491
aF0.477
aF0.509
aF0.51
aF0.498
aF0.509
aF0.479
aF0.514
aF0.559
aF0.475
aF0.557
aF0.543
asS'recall'
p5
(lp6
F0.476
aF0.507
aF0.543
aF0.484
aF0.543
aF0.501
aF0.534
aF0.499
aF0.479
aF0.504
aF0.502
aF0.495
aF0.445
aF0.509
aF0.523
aF0.491
aF0.49
aF0.502
aF0.491
aF0.521
aF0.486
aF0.441
aF0.525
aF0.443
aF0.457
asS'precision'
p7
(lp8
F0.475
aF0.507
aF0.542
aF0.483
aF0.544
aF0.501
aF0.534
aF0.499
aF0.479
aF0.504
aF0.502
aF0.495
aF0.445
aF0.509
aF0.522
aF0.491
aF0.489
aF0.502
aF0.491
aF0.522
aF0.486
aF0.439
aF0.527
aF0.443
aF0.457
asS'accuracy'
p9
(lp10
F0.502
aF0.529
aF0.558
aF0.511
aF0.562
aF0.52
aF0.556
aF0.518
aF0.502
aF0.523
aF0.523
aF0.517
aF0.464
aF0.532
aF0.532
aF0.52
aF0.52
aF0.521
aF0.514
aF0.55
aF0.498
aF0.468
aF0.552
aF0.468
aF0.477
assS'SVM'
p11
(dp12
g3
(lp13
F0.5
aF0.5
aF0.503
aF0.515
aF0.5
aF0.5
aF0.498
aF0.496
aF0.475
aF0.491
aF0.5
aF0.5
aF0.5
aF0.5
aF0.5
aF0.5
aF0.5
aF0.5
aF0.513
aF0.5
aF0.5
aF0.5
aF0.5
aF0.5
aF0.5
asg5
(lp14
F0.5
aF0.5
aF0.497
aF0.485
aF0.5
aF0.5
aF0.502
aF0.504
aF0.525
aF0.509
aF0.5
aF0.5
aF0.5
aF0.5
aF0.5
aF0.5
aF0.5
aF0.5
aF0.487
aF0.5
aF0.5
aF0.5
aF0.5
aF0.5
aF0.5
asg7
(lp15
F0.299
aF0.299
aF0.298
aF0.296
aF0.299
aF0.299
aF0.55
aF0.549
aF0.606
aF0.552
aF0.299
aF0.299
aF0.298
aF0.299
aF0.299
aF0.299
aF0.299
aF0.298
aF0.296
aF0.299
aF0.299
aF0.299
aF0.298
aF0.299
aF0.299
asg9
(lp16
F0.598
aF0.598
aF0.594
aF0.581
aF0.599
aF0.598
aF0.598
aF0.597
aF0.611
aF0.599
aF0.598
aF0.598
aF0.597
aF0.599
aF0.599
aF0.598
aF0.598
aF0.597
aF0.584
aF0.599
aF0.598
aF0.598
aF0.597
aF0.599
aF0.599
assS'RF'
p17
(dp18
g3
(lp19
F0.54
aF0.479
aF0.492
aF0.482
aF0.48
aF0.534
aF0.515
aF0.483
aF0.504
aF0.485
aF0.522
aF0.54
aF0.529
aF0.504
aF0.534
aF0.492
aF0.495
aF0.54
aF0.47
aF0.482
aF0.526
aF0.529
aF0.509
aF0.528
aF0.536
asg5
(lp20
F0.46
aF0.521
aF0.508
aF0.518
aF0.52
aF0.466
aF0.485
aF0.517
aF0.496
aF0.515
aF0.478
aF0.46
aF0.471
aF0.496
aF0.466
aF0.508
aF0.505
aF0.46
aF0.53
aF0.518
aF0.474
aF0.471
aF0.491
aF0.472
aF0.464
asg7
(lp21
F0.449
aF0.524
aF0.511
aF0.524
aF0.526
aF0.46
aF0.482
aF0.523
aF0.494
aF0.518
aF0.474
aF0.449
aF0.465
aF0.494
aF0.461
aF0.512
aF0.506
aF0.454
aF0.541
aF0.523
aF0.468
aF0.464
aF0.489
aF0.462
aF0.459
asg9
(lp22
F0.511
aF0.556
aF0.555
aF0.568
aF0.571
aF0.511
aF0.532
aF0.567
aF0.544
aF0.562
aF0.52
aF0.511
aF0.515
aF0.547
aF0.508
aF0.565
aF0.547
aF0.503
aF0.584
aF0.565
aF0.52
aF0.52
aF0.53
aF0.526
aF0.505
assS'FFT1'
p23
(dp24
g3
(lp25
F0.551
aF0.5
aF0.543
aF0.548
aF0.533
aF0.576
aF0.54
aF0.569
aF0.563
aF0.513
aF0.545
aF0.434
aF0.563
aF0.462
aF0.558
aF0.525
aF0.571
aF0.594
aF0.604
aF0.548
aF0.434
aF0.505
aF0.563
aF0.406
aF0.599
asg5
(lp26
F0.549
aF0.436
aF0.579
aF0.689
aF0.462
aF0.564
aF0.594
aF0.602
aF0.614
aF0.621
aF0.564
aF0.406
aF0.564
aF0.47
aF0.545
aF0.564
aF0.624
aF0.534
aF0.621
aF0.561
aF0.429
aF0.496
aF0.586
aF0.432
aF0.561
asg7
(lp27
F0.401
aF0.369
aF0.418
aF0.457
aF0.367
aF0.397
aF0.425
aF0.417
aF0.422
aF0.448
aF0.41
aF0.386
aF0.403
aF0.405
aF0.396
aF0.419
aF0.423
aF0.378
aF0.408
aF0.407
aF0.399
aF0.398
aF0.413
aF0.416
aF0.385
asg9
(lp28
F0.489
aF0.474
aF0.506
aF0.547
aF0.465
aF0.48
aF0.514
aF0.5
aF0.508
aF0.541
aF0.498
aF0.502
aF0.488
aF0.511
aF0.483
aF0.511
aF0.508
aF0.458
aF0.486
aF0.495
aF0.511
aF0.495
aF0.497
aF0.529
aF0.465
ass.