(dp0
S'DT'
p1
(dp2
S'false_alarm'
p3
(lp4
F0.453
aF0.508
asS'recall'
p5
(lp6
F0.547
aF0.492
asS'precision'
p7
(lp8
F0.546
aF0.493
asS'accuracy'
p9
(lp10
F0.563
aF0.51
assS'SVM'
p11
(dp12
g3
(lp13
F0.495
aF0.5
asg5
(lp14
F0.505
aF0.5
asg7
(lp15
F0.606
aF0.306
asg9
(lp16
F0.613
aF0.612
assS'RF'
p17
(dp18
g3
(lp19
F0.485
aF0.519
asg5
(lp20
F0.515
aF0.481
asg7
(lp21
F0.52
aF0.471
asg9
(lp22
F0.573
aF0.552
assS'FFT1'
p23
(dp24
g3
(lp25
F0.475
aF0.519
asg5
(lp26
F0.537
aF0.481
asg7
(lp27
F0.419
aF0.37
asg9
(lp28
F0.53
aF0.481
ass.