(dp0
S'DT'
p1
(dp2
S'false_alarm'
p3
(lp4
F1.0
aF1.0
aF1.0
aF1.0
aF1.0
aF0.667
aF0.667
aF1.0
aF1.0
aF0.667
aF1.0
aF0.667
aF1.0
aF0.667
aF0.667
aF0.667
aF1.0
aF1.0
aF1.0
aF0.667
aF0.667
aF1.0
aF1.0
aF1.0
aF1.0
asS'recall'
p5
(lp6
F0.971
aF0.912
aF0.939
aF0.909
aF0.909
aF0.912
aF1.0
aF0.939
aF1.0
aF0.788
aF0.735
aF0.912
aF0.939
aF0.97
aF1.0
aF0.853
aF0.941
aF0.909
aF0.97
aF0.848
aF0.824
aF0.971
aF0.97
aF0.909
aF0.909
asS'precision'
p7
(lp8
F0.917
aF0.912
aF0.912
aF0.909
aF0.909
aF0.939
aF0.944
aF0.912
aF0.917
aF0.929
aF0.893
aF0.939
aF0.912
aF0.941
aF0.943
aF0.935
aF0.914
aF0.909
aF0.914
aF0.933
aF0.933
aF0.917
aF0.914
aF0.909
aF0.909
asS'accuracy'
p9
(lp10
F0.892
aF0.838
aF0.861
aF0.833
aF0.833
aF0.865
aF0.946
aF0.861
aF0.917
aF0.75
aF0.676
aF0.865
aF0.861
aF0.917
aF0.944
aF0.811
aF0.865
aF0.833
aF0.889
aF0.806
aF0.784
aF0.892
aF0.889
aF0.833
aF0.833
assS'SVM'
p11
(dp12
g3
(lp13
F1.0
aF1.0
aF1.0
aF1.0
aF1.0
aF1.0
aF1.0
aF1.0
aF1.0
aF1.0
aF1.0
aF1.0
aF1.0
aF1.0
aF1.0
aF1.0
aF1.0
aF1.0
aF1.0
aF1.0
aF1.0
aF1.0
aF1.0
aF1.0
aF1.0
asg5
(lp14
F1.0
aF1.0
aF1.0
aF1.0
aF1.0
aF1.0
aF1.0
aF1.0
aF1.0
aF1.0
aF1.0
aF1.0
aF1.0
aF1.0
aF1.0
aF1.0
aF1.0
aF1.0
aF1.0
aF1.0
aF1.0
aF1.0
aF1.0
aF1.0
aF1.0
asg7
(lp15
F0.919
aF0.919
aF0.917
aF0.917
aF0.917
aF0.919
aF0.919
aF0.917
aF0.917
aF0.917
aF0.919
aF0.919
aF0.917
aF0.917
aF0.917
aF0.919
aF0.919
aF0.917
aF0.917
aF0.917
aF0.919
aF0.919
aF0.917
aF0.917
aF0.917
asg9
(lp16
F0.919
aF0.919
aF0.917
aF0.917
aF0.917
aF0.919
aF0.919
aF0.917
aF0.917
aF0.917
aF0.919
aF0.919
aF0.917
aF0.917
aF0.917
aF0.919
aF0.919
aF0.917
aF0.917
aF0.917
aF0.919
aF0.919
aF0.917
aF0.917
aF0.917
assS'RF'
p17
(dp18
g3
(lp19
F1.0
aF1.0
aF0.667
aF1.0
aF1.0
aF0.667
aF0.333
aF1.0
aF1.0
aF0.667
aF1.0
aF1.0
aF1.0
aF0.667
aF0.667
aF0.667
aF1.0
aF1.0
aF1.0
aF0.667
aF0.667
aF1.0
aF1.0
aF1.0
aF1.0
asg5
(lp20
F0.971
aF0.882
aF0.879
aF0.939
aF0.97
aF0.912
aF0.971
aF0.909
aF1.0
aF0.818
aF0.735
aF0.971
aF0.939
aF0.97
aF1.0
aF0.882
aF0.941
aF0.909
aF0.97
aF0.848
aF0.824
aF0.971
aF0.97
aF0.909
aF0.909
asg7
(lp21
F0.917
aF0.909
aF0.935
aF0.912
aF0.914
aF0.939
aF0.971
aF0.909
aF0.917
aF0.931
aF0.893
aF0.917
aF0.912
aF0.941
aF0.943
aF0.938
aF0.914
aF0.909
aF0.914
aF0.933
aF0.933
aF0.917
aF0.914
aF0.909
aF0.909
asg9
(lp22
F0.892
aF0.811
aF0.833
aF0.861
aF0.889
aF0.865
aF0.946
aF0.833
aF0.917
aF0.778
aF0.676
aF0.892
aF0.861
aF0.917
aF0.944
aF0.838
aF0.865
aF0.833
aF0.889
aF0.806
aF0.784
aF0.892
aF0.889
aF0.833
aF0.833
assS'FFT1'
p23
(dp24
g3
(lp25
F0.0
aF0.333
aF0.333
aF0.667
aF0.0
aF0.0
aF0.0
aF0.0
aF0.0
aF0.0
aF0.0
aF0.0
aF0.0
aF0.0
aF0.0
aF0.0
aF0.0
aF0.0
aF0.667
aF0.0
aF0.0
aF0.0
aF0.333
aF0.667
aF0.333
asg5
(lp26
F0.941
aF0.941
aF0.97
aF0.818
aF0.909
aF0.912
aF0.941
aF0.97
aF0.909
aF0.97
aF0.853
aF0.912
aF0.939
aF0.97
aF1.0
aF0.971
aF0.941
aF0.879
aF0.848
aF0.97
aF0.912
aF0.941
aF0.909
aF1.0
aF0.879
asg7
(lp27
F1.0
aF0.75
aF0.857
aF0.833
aF1.0
aF0.0
aF1.0
aF1.0
aF1.0
aF1.0
aF1.0
aF1.0
aF1.0
aF1.0
aF1.0
aF1.0
aF0.913
aF1.0
aF0.846
aF0.875
aF1.0
aF1.0
aF0.875
aF0.75
aF0.889
asg9
(lp28
F0.838
aF0.919
aF0.861
aF0.861
aF0.861
aF0.919
aF0.919
aF0.861
aF0.833
aF0.806
aF0.784
aF0.838
aF0.861
aF0.889
aF0.917
aF0.784
aF0.865
aF0.806
aF0.861
aF0.833
aF0.811
aF0.892
aF0.889
aF0.917
aF0.889
ass.