(dp0
S'10'
p1
(dp2
S'DT'
p3
(dp4
S'false_alarm'
p5
(lp6
F0.463
aF0.333
aF0.358
aF0.321
aF0.472
aF0.407
aF0.426
aF0.434
aF0.434
aF0.396
aF0.444
aF0.426
aF0.491
aF0.396
aF0.34
aF0.519
aF0.315
aF0.377
aF0.358
aF0.415
aF0.407
aF0.481
aF0.415
aF0.434
aF0.396
asS'recall'
p7
(lp8
F0.719
aF0.76
aF0.768
aF0.779
aF0.863
aF0.823
aF0.656
aF0.8
aF0.758
aF0.811
aF0.771
aF0.76
aF0.842
aF0.705
aF0.726
aF0.76
aF0.719
aF0.758
aF0.8
aF0.758
aF0.781
aF0.823
aF0.726
aF0.737
aF0.811
asS'precision'
p9
(lp10
F0.734
aF0.802
aF0.793
aF0.813
aF0.766
aF0.782
aF0.733
aF0.768
aF0.758
aF0.786
aF0.755
aF0.76
aF0.755
aF0.761
aF0.793
aF0.723
aF0.802
aF0.783
aF0.8
aF0.766
aF0.773
aF0.752
aF0.758
aF0.753
aF0.786
asS'accuracy'
p11
(lp12
F0.653
aF0.727
aF0.723
aF0.743
aF0.743
aF0.74
aF0.627
aF0.716
aF0.689
aF0.736
aF0.693
aF0.693
aF0.723
aF0.669
aF0.703
aF0.66
aF0.707
aF0.709
aF0.743
aF0.696
aF0.713
aF0.713
aF0.676
aF0.676
aF0.736
assS'SVM'
p13
(dp14
g5
(lp15
F0.5
aF0.63
aF0.434
aF0.604
aF0.528
aF0.852
aF0.815
aF0.849
aF0.792
aF0.887
aF0.648
aF0.537
aF0.943
aF0.623
aF0.623
aF0.667
aF0.537
aF1.0
aF0.604
aF0.887
aF0.704
aF0.741
aF0.642
aF0.717
aF0.811
asg7
(lp16
F0.698
aF0.823
aF0.811
aF0.842
aF0.874
aF0.958
aF0.969
aF0.905
aF0.958
aF0.979
aF0.833
aF0.802
aF0.989
aF0.853
aF0.842
aF0.76
aF0.75
aF0.989
aF0.842
aF0.916
aF0.938
aF0.885
aF0.863
aF0.853
aF0.916
asg9
(lp17
F0.713
aF0.699
aF0.77
aF0.714
aF0.748
aF0.667
aF0.679
aF0.656
aF0.684
aF0.664
aF0.696
aF0.726
aF0.653
aF0.711
aF0.708
aF0.67
aF0.713
aF0.639
aF0.714
aF0.649
aF0.703
aF0.68
aF0.707
aF0.681
aF0.669
asg11
(lp18
F0.627
aF0.66
aF0.723
aF0.682
aF0.73
aF0.667
aF0.687
aF0.635
aF0.689
aF0.669
aF0.66
aF0.68
aF0.655
aF0.682
aF0.676
aF0.607
aF0.647
aF0.635
aF0.682
aF0.628
aF0.707
aF0.66
aF0.682
aF0.649
aF0.655
assS'RF'
p19
(dp20
g5
(lp21
F0.444
aF0.407
aF0.396
aF0.321
aF0.453
aF0.407
aF0.315
aF0.34
aF0.358
aF0.34
aF0.333
aF0.389
aF0.358
aF0.415
aF0.358
aF0.556
aF0.185
aF0.472
aF0.377
aF0.34
aF0.333
aF0.463
aF0.302
aF0.34
aF0.415
asg7
(lp22
F0.75
aF0.802
aF0.684
aF0.779
aF0.874
aF0.771
aF0.76
aF0.779
aF0.758
aF0.853
aF0.75
aF0.802
aF0.779
aF0.8
aF0.758
aF0.771
aF0.708
aF0.842
aF0.768
aF0.789
aF0.75
aF0.833
aF0.768
aF0.821
aF0.832
asg9
(lp23
F0.75
aF0.778
aF0.756
aF0.813
aF0.776
aF0.771
aF0.811
aF0.804
aF0.791
aF0.818
aF0.8
aF0.786
aF0.796
aF0.776
aF0.791
aF0.712
aF0.872
aF0.762
aF0.785
aF0.806
aF0.8
aF0.762
aF0.82
aF0.813
aF0.782
asg11
(lp24
F0.68
aF0.727
aF0.655
aF0.743
aF0.757
aF0.707
aF0.733
aF0.736
aF0.716
aF0.784
aF0.72
aF0.733
aF0.73
aF0.723
aF0.716
aF0.653
aF0.747
aF0.73
aF0.716
aF0.743
aF0.72
aF0.727
aF0.743
aF0.764
aF0.743
assS'FFT1'
p25
(dp26
g5
(lp27
F0.056
aF0.074
aF0.038
aF0.075
aF0.057
aF0.037
aF0.056
aF0.075
aF0.075
aF0.057
aF0.093
aF0.074
aF0.038
aF0.075
aF0.057
aF0.019
aF0.056
aF0.057
aF0.038
aF0.057
aF0.056
aF0.056
aF0.019
aF0.019
aF0.094
asg7
(lp28
F0.938
aF0.896
aF0.947
aF0.926
aF0.947
aF0.958
aF0.948
aF0.884
aF0.937
aF0.958
aF0.948
aF0.865
aF0.958
aF0.968
aF0.926
aF0.927
aF0.927
aF0.937
aF0.947
aF0.958
aF0.875
aF0.938
aF0.937
aF0.958
aF0.979
asg9
(lp29
F0.8
aF0.868
aF0.828
aF0.733
aF0.818
aF1.0
aF1.0
aF0.811
aF0.897
aF0.75
aF0.8
aF0.852
aF0.861
aF0.857
aF0.875
aF0.857
aF0.885
aF0.833
aF0.842
aF0.852
aF0.818
aF0.824
aF0.833
aF0.889
aF0.872
asg11
(lp30
F0.627
aF0.713
aF0.709
aF0.669
aF0.696
aF0.687
aF0.727
aF0.757
aF0.716
aF0.723
aF0.687
aF0.693
aF0.723
aF0.716
aF0.689
aF0.66
aF0.727
aF0.689
aF0.696
aF0.716
aF0.687
aF0.72
aF0.703
aF0.696
aF0.703
asssS'100'
p31
(dp32
g3
(dp33
g5
(lp34
F0.333
aF0.389
aF0.302
aF0.34
aF0.434
aF0.333
aF0.259
aF0.472
aF0.415
aF0.434
aF0.444
aF0.352
aF0.377
aF0.509
aF0.396
aF0.407
aF0.352
aF0.434
aF0.453
aF0.321
aF0.296
aF0.37
aF0.434
aF0.396
aF0.396
asg7
(lp35
F0.708
aF0.792
aF0.821
aF0.832
aF0.853
aF0.771
aF0.698
aF0.853
aF0.768
aF0.832
aF0.854
aF0.813
aF0.832
aF0.779
aF0.821
aF0.781
aF0.75
aF0.874
aF0.779
aF0.832
aF0.781
aF0.844
aF0.8
aF0.853
aF0.789
asg9
(lp36
F0.791
aF0.784
aF0.83
aF0.814
aF0.779
aF0.804
aF0.827
aF0.764
aF0.768
aF0.775
aF0.774
aF0.804
aF0.798
aF0.733
aF0.788
aF0.773
aF0.791
aF0.783
aF0.755
aF0.823
aF0.824
aF0.802
aF0.768
aF0.794
aF0.781
asg11
(lp37
F0.693
aF0.727
aF0.777
aF0.77
aF0.75
aF0.733
aF0.713
aF0.736
aF0.703
aF0.736
aF0.747
aF0.753
aF0.757
aF0.676
aF0.743
aF0.713
aF0.713
aF0.764
aF0.696
aF0.777
aF0.753
aF0.767
aF0.716
aF0.764
aF0.723
assg13
(dp38
g5
(lp39
F0.407
aF0.426
aF0.396
aF0.321
aF0.491
aF0.556
aF0.37
aF0.377
aF0.358
aF0.434
aF0.5
aF0.352
aF0.34
aF0.509
aF0.415
aF0.426
aF0.241
aF0.472
aF0.302
aF0.358
aF0.519
aF0.481
aF0.547
aF0.434
aF0.491
asg7
(lp40
F0.854
aF0.844
aF0.874
aF0.895
aF0.884
aF0.917
aF0.844
aF0.832
aF0.8
aF0.884
aF0.885
aF0.854
aF0.958
aF0.895
aF0.874
aF0.854
aF0.823
aF0.916
aF0.916
aF0.863
aF0.802
aF0.885
aF0.905
aF0.832
aF0.874
asg9
(lp41
F0.788
aF0.779
aF0.798
aF0.833
aF0.764
aF0.746
aF0.802
aF0.798
aF0.8
aF0.785
aF0.759
aF0.812
aF0.835
aF0.759
aF0.79
aF0.781
aF0.859
aF0.777
aF0.845
aF0.812
aF0.733
aF0.766
aF0.748
aF0.775
aF0.761
asg11
(lp42
F0.76
aF0.747
aF0.777
aF0.818
aF0.75
aF0.747
aF0.767
aF0.757
aF0.743
aF0.77
aF0.747
aF0.78
aF0.851
aF0.75
aF0.77
aF0.753
aF0.8
aF0.777
aF0.838
aF0.784
aF0.687
aF0.753
aF0.743
aF0.736
aF0.743
assg19
(dp43
g5
(lp44
F0.315
aF0.407
aF0.472
aF0.283
aF0.472
aF0.389
aF0.296
aF0.491
aF0.321
aF0.302
aF0.426
aF0.426
aF0.472
aF0.377
aF0.245
aF0.426
aF0.315
aF0.472
aF0.396
aF0.358
aF0.278
aF0.389
aF0.509
aF0.321
aF0.34
asg7
(lp45
F0.792
aF0.781
aF0.8
aF0.8
aF0.789
aF0.865
aF0.76
aF0.874
aF0.758
aF0.853
aF0.833
aF0.76
aF0.895
aF0.832
aF0.768
aF0.792
aF0.74
aF0.853
aF0.832
aF0.895
aF0.792
aF0.906
aF0.779
aF0.8
aF0.811
asg9
(lp46
F0.817
aF0.773
aF0.752
aF0.835
aF0.75
aF0.798
aF0.82
aF0.761
aF0.809
aF0.835
aF0.777
aF0.76
aF0.773
aF0.798
aF0.849
aF0.768
aF0.807
aF0.764
aF0.79
aF0.817
aF0.835
aF0.806
aF0.733
aF0.817
aF0.811
asg11
(lp47
F0.753
aF0.713
aF0.703
aF0.77
aF0.696
aF0.773
aF0.74
aF0.743
aF0.73
aF0.797
aF0.74
aF0.693
aF0.764
aF0.757
aF0.764
aF0.713
aF0.72
aF0.736
aF0.75
aF0.804
aF0.767
aF0.8
aF0.676
aF0.757
aF0.757
assg25
(dp48
g5
(lp49
F0.074
aF0.074
aF0.038
aF0.075
aF0.057
aF0.037
aF0.056
aF0.075
aF0.094
aF0.057
aF0.037
aF0.074
aF0.038
aF0.075
aF0.075
aF0.111
aF0.056
aF0.057
aF0.038
aF0.057
aF0.056
aF0.056
aF0.019
aF0.075
aF0.113
asg7
(lp50
F0.958
aF0.938
aF0.937
aF0.884
aF0.958
aF0.938
aF0.927
aF0.895
aF0.958
aF0.947
aF0.938
aF0.865
aF0.958
aF0.968
aF0.916
aF0.938
aF0.927
aF0.916
aF0.916
aF0.979
aF0.875
aF0.938
aF0.926
aF0.968
aF0.979
asg9
(lp51
F0.65
aF0.814
aF0.926
aF0.806
aF0.87
aF0.889
aF0.875
aF0.865
aF0.813
aF0.88
aF0.893
aF0.862
aF0.9
aF0.783
aF0.806
aF0.806
aF0.76
aF0.833
aF0.895
aF0.808
aF0.815
aF0.852
aF0.885
aF0.786
aF0.771
asg11
(lp52
F0.673
aF0.713
aF0.743
aF0.73
aF0.696
aF0.7
aF0.733
aF0.73
aF0.743
aF0.75
aF0.733
aF0.707
aF0.736
aF0.743
aF0.682
aF0.7
aF0.713
aF0.73
aF0.73
aF0.716
aF0.72
aF0.713
aF0.723
aF0.723
aF0.696
asssS'50'
p53
(dp54
g3
(dp55
g5
(lp56
F0.407
aF0.333
aF0.377
aF0.453
aF0.472
aF0.426
aF0.333
aF0.358
aF0.264
aF0.415
aF0.407
aF0.333
aF0.34
aF0.377
aF0.302
aF0.389
aF0.407
aF0.358
aF0.302
aF0.377
aF0.296
aF0.37
aF0.321
aF0.226
aF0.396
asg7
(lp57
F0.74
aF0.771
aF0.789
aF0.789
aF0.853
aF0.781
aF0.75
aF0.8
aF0.779
aF0.926
aF0.792
aF0.792
aF0.884
aF0.853
aF0.758
aF0.708
aF0.781
aF0.842
aF0.789
aF0.789
aF0.74
aF0.875
aF0.779
aF0.747
aF0.863
asg9
(lp58
F0.763
aF0.804
aF0.789
aF0.758
aF0.764
aF0.765
aF0.8
aF0.8
aF0.841
aF0.8
aF0.776
aF0.809
aF0.824
aF0.802
aF0.818
aF0.764
aF0.773
aF0.808
aF0.824
aF0.789
aF0.816
aF0.808
aF0.813
aF0.855
aF0.796
asg11
(lp59
F0.687
aF0.733
aF0.73
aF0.703
aF0.736
aF0.707
aF0.72
aF0.743
aF0.764
aF0.804
aF0.72
aF0.747
aF0.804
aF0.77
aF0.736
aF0.673
aF0.713
aF0.77
aF0.757
aF0.73
aF0.727
aF0.787
aF0.743
aF0.757
aF0.77
assg13
(dp60
g5
(lp61
F0.463
aF0.426
aF0.434
aF0.358
aF0.547
aF0.537
aF0.333
aF0.358
aF0.34
aF0.472
aF0.5
aF0.352
aF0.377
aF0.623
aF0.453
aF0.519
aF0.444
aF0.491
aF0.415
aF0.434
aF0.574
aF0.556
aF0.415
aF0.321
aF0.396
asg7
(lp62
F0.823
aF0.833
aF0.884
aF0.779
aF0.926
aF0.844
aF0.844
aF0.853
aF0.863
aF0.905
aF0.792
aF0.896
aF0.884
aF0.895
aF0.842
aF0.865
aF0.844
aF0.926
aF0.905
aF0.895
aF0.844
aF0.938
aF0.884
aF0.853
aF0.884
asg9
(lp63
F0.76
aF0.777
aF0.785
aF0.796
aF0.752
aF0.736
aF0.818
aF0.81
aF0.82
aF0.775
aF0.738
aF0.819
aF0.808
aF0.72
aF0.769
aF0.748
aF0.771
aF0.772
aF0.796
aF0.787
aF0.723
aF0.75
aF0.792
aF0.827
aF0.8
asg11
(lp64
F0.72
aF0.74
aF0.77
aF0.73
aF0.757
aF0.707
aF0.78
aF0.777
aF0.791
aF0.77
aF0.687
aF0.807
aF0.791
aF0.709
aF0.736
aF0.727
aF0.74
aF0.777
aF0.791
aF0.777
aF0.693
aF0.76
aF0.777
aF0.791
aF0.784
assg19
(dp65
g5
(lp66
F0.37
aF0.352
aF0.358
aF0.377
aF0.472
aF0.426
aF0.296
aF0.396
aF0.396
aF0.264
aF0.444
aF0.333
aF0.453
aF0.377
aF0.34
aF0.407
aF0.278
aF0.377
aF0.434
aF0.34
aF0.37
aF0.333
aF0.321
aF0.34
aF0.34
asg7
(lp67
F0.76
aF0.802
aF0.863
aF0.779
aF0.884
aF0.823
aF0.729
aF0.853
aF0.789
aF0.926
aF0.802
aF0.781
aF0.863
aF0.8
aF0.8
aF0.76
aF0.688
aF0.853
aF0.8
aF0.853
aF0.771
aF0.844
aF0.8
aF0.811
aF0.874
asg9
(lp68
F0.785
aF0.802
aF0.812
aF0.787
aF0.771
aF0.775
aF0.814
aF0.794
aF0.781
aF0.863
aF0.762
aF0.806
aF0.774
aF0.792
aF0.809
aF0.768
aF0.815
aF0.802
aF0.768
aF0.818
aF0.787
aF0.818
aF0.817
aF0.811
aF0.822
asg11
(lp69
F0.713
aF0.747
aF0.784
aF0.723
aF0.757
aF0.733
aF0.72
aF0.764
aF0.723
aF0.858
aF0.713
aF0.74
aF0.75
aF0.736
aF0.75
aF0.7
aF0.7
aF0.77
aF0.716
aF0.784
aF0.72
aF0.78
aF0.757
aF0.757
aF0.797
assg25
(dp70
g5
(lp71
F0.074
aF0.056
aF0.038
aF0.075
aF0.057
aF0.037
aF0.056
aF0.075
aF0.094
aF0.057
aF0.056
aF0.074
aF0.038
aF0.075
aF0.075
aF0.093
aF0.056
aF0.057
aF0.038
aF0.057
aF0.056
aF0.056
aF0.019
aF0.075
aF0.113
asg7
(lp72
F0.958
aF0.948
aF0.937
aF0.874
aF0.958
aF0.938
aF0.938
aF0.895
aF0.958
aF0.947
aF0.938
aF0.865
aF0.958
aF0.968
aF0.926
aF0.917
aF0.938
aF0.926
aF0.937
aF0.968
aF0.885
aF0.938
aF0.926
aF0.968
aF0.968
asg9
(lp73
F0.75
aF0.872
aF0.9
aF0.781
aF0.818
aF0.808
aF0.833
aF0.862
aF0.8
aF0.9
aF0.852
aF0.852
aF0.903
aF0.778
aF0.786
aF0.8
aF0.821
aF0.852
aF0.889
aF0.808
aF0.88
aF0.9
aF0.885
aF0.826
aF0.821
asg11
(lp74
F0.68
aF0.753
aF0.75
aF0.73
aF0.743
aF0.673
aF0.687
aF0.716
aF0.703
aF0.743
aF0.727
aF0.713
aF0.73
aF0.709
aF0.642
aF0.68
aF0.713
aF0.743
aF0.73
aF0.743
aF0.753
aF0.727
aF0.791
aF0.791
aF0.743
asssS'25'
p75
(dp76
g3
(dp77
g5
(lp78
F0.37
aF0.333
aF0.302
aF0.358
aF0.491
aF0.352
aF0.296
aF0.302
aF0.472
aF0.415
aF0.426
aF0.296
aF0.34
aF0.396
aF0.302
aF0.463
aF0.296
aF0.415
aF0.415
aF0.358
aF0.333
aF0.426
aF0.358
aF0.34
aF0.377
asg7
(lp79
F0.667
aF0.802
aF0.842
aF0.811
aF0.811
aF0.823
aF0.688
aF0.768
aF0.821
aF0.768
aF0.802
aF0.802
aF0.811
aF0.811
aF0.705
aF0.75
aF0.708
aF0.758
aF0.8
aF0.811
aF0.729
aF0.76
aF0.747
aF0.768
aF0.779
asg9
(lp80
F0.762
aF0.811
aF0.833
aF0.802
aF0.748
aF0.806
aF0.805
aF0.82
aF0.757
aF0.768
aF0.77
aF0.828
aF0.811
aF0.786
aF0.807
aF0.742
aF0.81
aF0.766
aF0.776
aF0.802
aF0.795
aF0.76
aF0.789
aF0.802
aF0.787
asg11
(lp81
F0.653
aF0.753
aF0.791
aF0.75
aF0.703
aF0.76
aF0.693
aF0.743
aF0.716
aF0.703
aF0.72
aF0.767
aF0.757
aF0.736
aF0.703
aF0.673
aF0.707
aF0.696
aF0.723
aF0.75
aF0.707
aF0.693
aF0.709
aF0.73
aF0.723
assg13
(dp82
g5
(lp83
F0.463
aF0.463
aF0.547
aF0.34
aF0.528
aF0.574
aF0.389
aF0.642
aF0.509
aF0.472
aF0.481
aF0.37
aF0.491
aF0.547
aF0.491
aF0.444
aF0.389
aF0.453
aF0.472
aF0.528
aF0.556
aF0.537
aF0.509
aF0.566
aF0.453
asg7
(lp84
F0.75
aF0.76
aF0.884
aF0.8
aF0.926
aF0.885
aF0.781
aF0.874
aF0.884
aF0.884
aF0.802
aF0.865
aF0.884
aF0.789
aF0.863
aF0.833
aF0.802
aF0.853
aF0.821
aF0.874
aF0.813
aF0.854
aF0.832
aF0.863
aF0.842
asg9
(lp85
F0.742
aF0.745
aF0.743
aF0.809
aF0.759
aF0.733
aF0.781
aF0.709
aF0.757
aF0.771
aF0.748
aF0.806
aF0.764
aF0.721
aF0.759
aF0.769
aF0.786
aF0.771
aF0.757
aF0.748
aF0.722
aF0.739
aF0.745
aF0.732
aF0.769
asg11
(lp86
F0.673
aF0.68
aF0.73
aF0.75
aF0.764
aF0.72
aF0.72
aF0.689
aF0.743
aF0.757
aF0.7
aF0.78
aF0.75
aF0.669
aF0.736
aF0.733
aF0.733
aF0.743
aF0.716
aF0.73
aF0.68
aF0.713
aF0.709
aF0.709
aF0.736
assg19
(dp87
g5
(lp88
F0.519
aF0.352
aF0.377
aF0.321
aF0.434
aF0.407
aF0.296
aF0.358
aF0.415
aF0.377
aF0.352
aF0.222
aF0.358
aF0.377
aF0.377
aF0.407
aF0.204
aF0.434
aF0.302
aF0.302
aF0.296
aF0.389
aF0.415
aF0.358
aF0.321
asg7
(lp89
F0.75
aF0.76
aF0.863
aF0.789
aF0.905
aF0.813
aF0.781
aF0.832
aF0.758
aF0.884
aF0.823
aF0.771
aF0.789
aF0.747
aF0.789
aF0.802
aF0.677
aF0.842
aF0.821
aF0.789
aF0.708
aF0.854
aF0.821
aF0.832
aF0.842
asg9
(lp90
F0.72
aF0.793
aF0.804
aF0.815
aF0.789
aF0.78
aF0.824
aF0.806
aF0.766
aF0.808
aF0.806
aF0.86
aF0.798
aF0.78
aF0.789
aF0.778
aF0.855
aF0.777
aF0.83
aF0.824
aF0.81
aF0.796
aF0.78
aF0.806
aF0.825
asg11
(lp91
F0.653
aF0.72
aF0.777
aF0.75
aF0.784
aF0.733
aF0.753
aF0.764
aF0.696
aF0.791
aF0.76
aF0.773
aF0.736
aF0.703
aF0.73
aF0.727
aF0.72
aF0.743
aF0.777
aF0.757
aF0.707
aF0.767
aF0.736
aF0.764
aF0.784
assg25
(dp92
g5
(lp93
F0.074
aF0.074
aF0.038
aF0.019
aF0.038
aF0.037
aF0.056
aF0.075
aF0.094
aF0.057
aF0.056
aF0.056
aF0.038
aF0.075
aF0.057
aF0.111
aF0.056
aF0.057
aF0.038
aF0.057
aF0.056
aF0.037
aF0.019
aF0.075
aF0.094
asg7
(lp94
F0.958
aF0.885
aF0.937
aF0.874
aF0.958
aF0.948
aF0.948
aF0.895
aF0.937
aF0.937
aF0.948
aF0.854
aF0.958
aF0.968
aF0.916
aF0.917
aF0.917
aF0.926
aF0.926
aF0.989
aF0.896
aF0.938
aF0.937
aF0.926
aF0.958
asg9
(lp95
F0.857
aF0.833
aF0.875
aF0.897
aF0.842
aF0.792
aF0.778
aF0.844
aF0.774
aF0.871
aF0.8
aF0.893
aF0.871
aF0.786
aF0.885
aF0.758
aF0.857
aF0.852
aF0.9
aF0.852
aF0.842
aF0.88
aF0.87
aF0.806
aF0.667
asg11
(lp96
F0.633
aF0.713
aF0.736
aF0.696
aF0.696
aF0.707
aF0.72
aF0.73
aF0.709
aF0.777
aF0.707
aF0.7
aF0.75
aF0.736
aF0.703
aF0.7
aF0.733
aF0.736
aF0.709
aF0.757
aF0.733
aF0.693
aF0.676
aF0.764
aF0.723
asss.