(dp0
S'25'
p1
(dp2
S'SVM'
p3
(dp4
S'false_alarm'
p5
(lp6
F0.339
aF0.319
asS'recall'
p7
(lp8
F0.661
aF0.681
asS'precision'
p9
(lp10
F0.661
aF0.678
asS'accuracy'
p11
(lp12
F0.677
aF0.693
assS'FFT'
p13
(dp14
g5
(lp15
F0.31
aF0.353
asg7
(lp16
F0.69
aF0.647
asg9
(lp17
F0.723
aF0.661
asg11
(lp18
F0.729
aF0.68
asss.