(dp0
S'10'
p1
(dp2
S'DT'
p3
(dp4
S'false_alarm'
p5
(lp6
F0.203
aF0.288
aF0.229
aF0.314
aF0.297
aF0.322
aF0.271
aF0.288
aF0.237
aF0.297
aF0.373
aF0.254
aF0.322
aF0.263
aF0.22
aF0.254
aF0.203
aF0.246
aF0.237
aF0.246
aF0.263
aF0.237
aF0.322
aF0.254
aF0.271
asS'recall'
p7
(lp8
F0.587
aF0.68
aF0.627
aF0.533
aF0.64
aF0.587
aF0.507
aF0.533
aF0.533
aF0.48
aF0.56
aF0.547
aF0.44
aF0.627
aF0.547
aF0.6
aF0.533
aF0.613
aF0.507
aF0.68
aF0.467
aF0.613
aF0.547
aF0.507
aF0.52
asS'precision'
p9
(lp10
F0.647
aF0.6
aF0.635
aF0.519
aF0.578
aF0.537
aF0.543
aF0.541
aF0.588
aF0.507
aF0.488
aF0.577
aF0.465
aF0.603
aF0.612
aF0.6
aF0.625
aF0.613
aF0.576
aF0.637
aF0.53
aF0.622
aF0.519
aF0.559
aF0.549
asS'accuracy'
p11
(lp12
F0.715
aF0.699
aF0.715
aF0.627
aF0.679
aF0.642
aF0.642
aF0.642
aF0.674
aF0.617
aF0.601
aF0.668
aF0.585
aF0.694
aF0.689
aF0.689
aF0.694
aF0.699
aF0.663
aF0.725
aF0.632
aF0.705
aF0.627
aF0.653
aF0.648
assS'SVM'
p13
(dp14
g5
(lp15
F0.136
aF0.339
aF0.22
aF0.347
aF0.297
aF0.212
aF0.144
aF0.229
aF0.042
aF0.195
aF0.263
aF0.178
aF0.093
aF0.136
aF0.229
aF0.254
aF0.237
aF0.297
aF0.22
aF0.314
aF0.119
aF0.161
aF0.093
aF0.042
aF0.102
asg7
(lp16
F0.467
aF0.707
aF0.427
aF0.467
aF0.653
aF0.373
aF0.227
aF0.36
aF0.147
aF0.32
aF0.533
aF0.547
aF0.333
aF0.333
aF0.44
aF0.707
aF0.587
aF0.64
aF0.627
aF0.64
aF0.32
aF0.347
aF0.28
aF0.173
aF0.307
asg9
(lp17
F0.686
aF0.57
aF0.552
aF0.461
aF0.583
aF0.528
aF0.5
aF0.5
aF0.688
aF0.511
aF0.563
aF0.661
aF0.694
aF0.61
aF0.55
aF0.639
aF0.611
aF0.578
aF0.644
aF0.565
aF0.632
aF0.578
aF0.656
aF0.722
aF0.657
asg11
(lp18
F0.71
aF0.679
aF0.642
aF0.58
aF0.684
aF0.627
aF0.611
aF0.611
aF0.642
aF0.617
aF0.658
aF0.715
aF0.684
aF0.658
aF0.642
aF0.731
aF0.694
aF0.679
aF0.72
aF0.668
aF0.663
aF0.648
aF0.663
aF0.653
aF0.668
assS'RF'
p19
(dp20
g5
(lp21
F0.136
aF0.195
aF0.195
aF0.246
aF0.178
aF0.28
aF0.229
aF0.237
aF0.11
aF0.161
aF0.254
aF0.195
aF0.178
aF0.169
aF0.161
aF0.161
aF0.144
aF0.229
aF0.178
aF0.22
aF0.212
aF0.229
aF0.22
aF0.212
aF0.161
asg7
(lp22
F0.533
aF0.573
aF0.627
aF0.453
aF0.48
aF0.507
aF0.507
aF0.6
aF0.493
aF0.48
aF0.587
aF0.52
aF0.427
aF0.56
aF0.507
aF0.453
aF0.467
aF0.587
aF0.493
aF0.667
aF0.533
aF0.48
aF0.44
aF0.533
aF0.533
asg9
(lp23
F0.714
aF0.652
aF0.671
aF0.54
aF0.632
aF0.535
aF0.585
aF0.616
aF0.74
aF0.655
aF0.595
aF0.629
aF0.604
aF0.677
aF0.667
aF0.642
aF0.673
aF0.62
aF0.638
aF0.658
aF0.615
aF0.571
aF0.559
aF0.615
aF0.678
asg11
(lp24
F0.736
aF0.715
aF0.736
aF0.637
aF0.689
aF0.637
aF0.668
aF0.699
aF0.736
aF0.699
aF0.684
aF0.694
aF0.668
aF0.725
aF0.71
aF0.689
aF0.705
aF0.699
aF0.694
aF0.736
aF0.689
aF0.658
aF0.648
aF0.689
aF0.72
assS'FFT1'
p25
(dp26
g5
(lp27
F0.102
aF0.051
aF0.051
aF0.076
aF0.093
aF0.076
aF0.051
aF0.042
aF0.093
aF0.068
aF0.059
aF0.034
aF0.068
aF0.042
aF0.059
aF0.059
aF0.076
aF0.042
aF0.068
aF0.076
aF0.051
aF0.051
aF0.059
aF0.068
aF0.059
asg7
(lp28
F0.933
aF0.973
aF0.973
aF0.96
aF0.96
aF0.947
aF0.933
aF0.947
aF0.947
aF0.947
aF0.907
aF0.96
aF0.947
aF0.853
aF0.947
aF0.947
aF0.907
aF0.92
aF0.933
aF0.987
aF0.973
aF0.907
aF0.933
aF0.907
aF0.92
asg9
(lp29
F0.519
aF0.495
aF0.495
aF0.395
aF0.429
aF0.341
aF0.5
aF0.444
aF0.495
aF0.41
aF0.479
aF0.5
aF0.568
aF0.547
aF0.541
aF0.517
aF0.4
aF0.7
aF0.452
aF0.344
aF0.5
aF0.514
aF0.5
aF0.6
aF0.706
asg11
(lp30
F0.674
aF0.653
aF0.663
aF0.601
aF0.642
aF0.653
aF0.668
aF0.674
aF0.663
aF0.689
aF0.632
aF0.653
aF0.668
aF0.674
aF0.674
aF0.632
aF0.648
aF0.617
aF0.653
aF0.622
aF0.648
aF0.622
aF0.679
aF0.58
aF0.679
asssS'100'
p31
(dp32
g3
(dp33
g5
(lp34
F0.186
aF0.186
aF0.237
aF0.229
aF0.246
aF0.254
aF0.254
aF0.203
aF0.195
aF0.263
aF0.254
aF0.237
aF0.263
aF0.195
aF0.186
aF0.254
aF0.246
aF0.229
aF0.237
aF0.203
aF0.246
aF0.22
aF0.254
aF0.339
aF0.186
asg7
(lp35
F0.653
aF0.64
aF0.707
aF0.52
aF0.6
aF0.587
aF0.68
aF0.613
aF0.64
aF0.547
aF0.587
aF0.587
aF0.547
aF0.627
aF0.627
aF0.56
aF0.653
aF0.653
aF0.6
aF0.667
aF0.493
aF0.653
aF0.587
aF0.533
aF0.6
asg9
(lp36
F0.69
aF0.686
aF0.654
aF0.591
aF0.608
aF0.595
aF0.63
aF0.657
aF0.676
aF0.569
aF0.595
aF0.611
aF0.569
aF0.671
aF0.681
aF0.583
aF0.628
aF0.645
aF0.616
aF0.676
aF0.561
aF0.653
aF0.595
aF0.5
aF0.672
asg11
(lp37
F0.751
aF0.746
aF0.741
aF0.674
aF0.694
aF0.684
aF0.72
aF0.725
aF0.741
aF0.663
aF0.684
aF0.694
aF0.663
aF0.736
aF0.741
aF0.674
aF0.715
aF0.725
aF0.699
aF0.746
aF0.653
aF0.731
aF0.684
aF0.611
aF0.731
assg13
(dp38
g5
(lp39
F0.153
aF0.246
aF0.195
aF0.203
aF0.195
aF0.263
aF0.237
aF0.263
aF0.229
aF0.178
aF0.254
aF0.195
aF0.229
aF0.186
aF0.212
aF0.212
aF0.186
aF0.263
aF0.203
aF0.305
aF0.212
aF0.186
aF0.28
aF0.271
aF0.178
asg7
(lp40
F0.733
aF0.813
aF0.76
aF0.573
aF0.853
aF0.693
aF0.72
aF0.747
aF0.76
aF0.56
aF0.827
aF0.653
aF0.707
aF0.653
aF0.587
aF0.72
aF0.72
aF0.773
aF0.6
aF0.707
aF0.653
aF0.68
aF0.773
aF0.72
aF0.76
asg9
(lp41
F0.753
aF0.678
aF0.713
aF0.642
aF0.736
aF0.627
aF0.659
aF0.644
aF0.679
aF0.667
aF0.674
aF0.681
aF0.662
aF0.69
aF0.638
aF0.684
aF0.711
aF0.652
aF0.652
aF0.596
aF0.662
aF0.699
aF0.637
aF0.628
aF0.731
asg11
(lp42
F0.803
aF0.777
aF0.788
aF0.71
aF0.824
aF0.72
aF0.746
aF0.741
aF0.767
aF0.72
aF0.777
aF0.746
aF0.746
aF0.751
aF0.71
aF0.762
aF0.777
aF0.751
aF0.72
aF0.699
aF0.736
aF0.762
aF0.741
aF0.725
aF0.798
assg19
(dp43
g5
(lp44
F0.203
aF0.203
aF0.144
aF0.161
aF0.254
aF0.229
aF0.186
aF0.169
aF0.195
aF0.203
aF0.212
aF0.153
aF0.169
aF0.127
aF0.153
aF0.119
aF0.161
aF0.178
aF0.271
aF0.161
aF0.186
aF0.169
aF0.195
aF0.229
aF0.161
asg7
(lp45
F0.493
aF0.467
aF0.56
aF0.387
aF0.533
aF0.52
aF0.507
aF0.52
aF0.547
aF0.52
aF0.547
aF0.467
aF0.373
aF0.387
aF0.44
aF0.427
aF0.4
aF0.587
aF0.453
aF0.493
aF0.427
aF0.453
aF0.467
aF0.493
aF0.453
asg9
(lp46
F0.607
aF0.593
aF0.712
aF0.604
aF0.571
aF0.591
aF0.633
aF0.661
aF0.641
aF0.619
aF0.621
aF0.66
aF0.583
aF0.659
aF0.647
aF0.696
aF0.612
aF0.677
aF0.515
aF0.661
aF0.593
aF0.63
aF0.603
aF0.578
aF0.642
asg11
(lp47
F0.679
aF0.668
aF0.741
aF0.663
aF0.663
aF0.674
aF0.694
aF0.71
aF0.705
aF0.689
aF0.694
aF0.699
aF0.653
aF0.684
aF0.689
aF0.705
aF0.668
aF0.731
aF0.622
aF0.705
aF0.663
aF0.684
aF0.674
aF0.663
aF0.689
assg25
(dp48
g5
(lp49
F0.085
aF0.042
aF0.059
aF0.059
aF0.076
aF0.051
aF0.068
aF0.051
aF0.068
aF0.085
aF0.076
aF0.059
aF0.059
aF0.051
aF0.085
aF0.059
aF0.068
aF0.051
aF0.093
aF0.059
aF0.059
aF0.059
aF0.068
aF0.068
aF0.068
asg7
(lp50
F0.933
aF0.96
aF0.947
aF0.92
aF0.933
aF0.973
aF0.907
aF0.92
aF0.987
aF0.92
aF0.92
aF0.973
aF1.0
aF0.893
aF0.933
aF0.907
aF0.933
aF0.947
aF0.96
aF0.973
aF0.973
aF0.947
aF0.933
aF0.907
aF0.92
asg9
(lp51
F0.556
aF0.421
aF0.5
aF0.515
aF0.488
aF0.459
aF0.507
aF0.412
aF0.333
aF0.533
aF0.464
aF0.491
aF0.517
aF0.574
aF0.431
aF0.531
aF0.3
aF0.559
aF0.4
aF0.5
aF0.589
aF0.464
aF0.523
aF0.438
aF0.466
asg11
(lp52
F0.668
aF0.591
aF0.699
aF0.622
aF0.611
aF0.601
aF0.632
aF0.653
aF0.642
aF0.642
aF0.642
aF0.663
aF0.663
aF0.637
aF0.632
aF0.668
aF0.642
aF0.658
aF0.611
aF0.622
aF0.715
aF0.611
aF0.668
aF0.57
aF0.596
asssS'50'
p53
(dp54
g3
(dp55
g5
(lp56
F0.212
aF0.254
aF0.322
aF0.263
aF0.195
aF0.203
aF0.186
aF0.203
aF0.203
aF0.212
aF0.246
aF0.212
aF0.212
aF0.263
aF0.186
aF0.178
aF0.237
aF0.203
aF0.195
aF0.271
aF0.246
aF0.271
aF0.22
aF0.254
aF0.186
asg7
(lp57
F0.64
aF0.827
aF0.693
aF0.493
aF0.667
aF0.68
aF0.587
aF0.747
aF0.76
aF0.613
aF0.653
aF0.613
aF0.64
aF0.72
aF0.667
aF0.613
aF0.56
aF0.587
aF0.613
aF0.72
aF0.587
aF0.653
aF0.693
aF0.587
aF0.693
asg9
(lp58
F0.658
aF0.674
aF0.578
aF0.544
aF0.685
aF0.68
aF0.667
aF0.7
aF0.704
aF0.648
aF0.628
aF0.648
aF0.658
aF0.635
aF0.694
aF0.687
aF0.6
aF0.647
aF0.667
aF0.628
aF0.603
aF0.605
aF0.667
aF0.595
aF0.703
asg11
(lp59
F0.731
aF0.777
aF0.684
aF0.642
aF0.751
aF0.751
aF0.725
aF0.777
aF0.782
aF0.72
aF0.715
aF0.72
aF0.731
aF0.731
aF0.756
aF0.741
aF0.684
aF0.715
aF0.731
aF0.725
aF0.689
aF0.699
aF0.746
aF0.684
aF0.767
assg13
(dp60
g5
(lp61
F0.22
aF0.203
aF0.212
aF0.237
aF0.237
aF0.229
aF0.237
aF0.246
aF0.297
aF0.195
aF0.322
aF0.203
aF0.254
aF0.212
aF0.237
aF0.229
aF0.246
aF0.186
aF0.22
aF0.305
aF0.229
aF0.178
aF0.263
aF0.28
aF0.169
asg7
(lp62
F0.627
aF0.853
aF0.747
aF0.6
aF0.76
aF0.747
aF0.68
aF0.84
aF0.8
aF0.72
aF0.747
aF0.667
aF0.64
aF0.6
aF0.693
aF0.68
aF0.693
aF0.707
aF0.64
aF0.787
aF0.733
aF0.707
aF0.587
aF0.693
aF0.72
asg9
(lp63
F0.644
aF0.727
aF0.691
aF0.616
aF0.671
aF0.675
aF0.646
aF0.685
aF0.632
aF0.701
aF0.596
aF0.676
aF0.615
aF0.643
aF0.65
aF0.654
aF0.642
aF0.707
aF0.649
aF0.621
aF0.671
aF0.716
aF0.587
aF0.612
aF0.73
asg11
(lp64
F0.72
aF0.819
aF0.772
aF0.699
aF0.762
aF0.762
aF0.731
aF0.788
aF0.741
aF0.772
aF0.705
aF0.746
aF0.705
aF0.715
aF0.736
aF0.736
aF0.731
aF0.772
aF0.725
aF0.731
aF0.756
aF0.777
aF0.679
aF0.71
aF0.788
assg19
(dp65
g5
(lp66
F0.144
aF0.161
aF0.127
aF0.136
aF0.186
aF0.212
aF0.076
aF0.144
aF0.195
aF0.178
aF0.169
aF0.229
aF0.136
aF0.153
aF0.169
aF0.161
aF0.178
aF0.186
aF0.169
aF0.22
aF0.203
aF0.119
aF0.169
aF0.186
aF0.153
asg7
(lp67
F0.453
aF0.6
aF0.627
aF0.467
aF0.6
aF0.507
aF0.573
aF0.52
aF0.48
aF0.533
aF0.533
aF0.467
aF0.507
aF0.547
aF0.44
aF0.44
aF0.573
aF0.52
aF0.56
aF0.533
aF0.587
aF0.573
aF0.453
aF0.493
aF0.627
asg9
(lp68
F0.667
aF0.703
aF0.758
aF0.686
aF0.672
aF0.603
aF0.827
aF0.696
aF0.61
aF0.656
aF0.667
aF0.565
aF0.704
aF0.695
aF0.623
aF0.635
aF0.672
aF0.639
aF0.677
aF0.606
aF0.647
aF0.754
aF0.63
aF0.627
aF0.723
asg11
(lp69
F0.699
aF0.746
aF0.777
aF0.71
aF0.731
aF0.679
aF0.788
aF0.725
aF0.679
aF0.71
aF0.715
aF0.653
aF0.725
aF0.731
aF0.679
aF0.684
aF0.725
aF0.699
aF0.725
aF0.684
aF0.715
aF0.762
aF0.684
aF0.689
aF0.762
assg25
(dp70
g5
(lp71
F0.085
aF0.051
aF0.059
aF0.059
aF0.042
aF0.059
aF0.059
aF0.051
aF0.059
aF0.085
aF0.085
aF0.051
aF0.059
aF0.051
aF0.068
aF0.051
aF0.068
aF0.034
aF0.093
aF0.059
aF0.059
aF0.068
aF0.068
aF0.051
aF0.059
asg7
(lp72
F0.947
aF0.933
aF0.933
aF0.92
aF0.947
aF0.96
aF0.92
aF0.92
aF0.973
aF0.907
aF0.907
aF0.973
aF1.0
aF0.893
aF0.933
aF0.933
aF0.893
aF0.92
aF0.933
aF0.973
aF0.973
aF0.907
aF0.96
aF0.92
aF0.933
asg9
(lp73
F0.556
aF0.488
aF0.48
aF0.615
aF0.467
aF0.46
aF0.462
aF0.59
aF0.519
aF0.559
aF0.489
aF0.483
aF0.474
aF0.53
aF0.478
aF0.5
aF0.563
aF0.585
aF0.419
aF0.446
aF0.513
aF0.524
aF0.538
aF0.351
aF0.541
asg11
(lp74
F0.699
aF0.622
aF0.668
aF0.648
aF0.653
aF0.637
aF0.663
aF0.668
aF0.715
aF0.658
aF0.648
aF0.663
aF0.617
aF0.72
aF0.627
aF0.705
aF0.725
aF0.674
aF0.689
aF0.653
aF0.694
aF0.627
aF0.689
aF0.617
aF0.674
asssS'25'
p75
(dp76
g3
(dp77
g5
(lp78
F0.22
aF0.22
aF0.237
aF0.237
aF0.229
aF0.297
aF0.203
aF0.195
aF0.237
aF0.229
aF0.305
aF0.237
aF0.254
aF0.305
aF0.178
aF0.254
aF0.195
aF0.22
aF0.212
aF0.288
aF0.254
aF0.195
aF0.246
aF0.305
aF0.178
asg7
(lp79
F0.533
aF0.667
aF0.56
aF0.64
aF0.653
aF0.68
aF0.48
aF0.573
aF0.733
aF0.56
aF0.6
aF0.587
aF0.573
aF0.693
aF0.587
aF0.547
aF0.547
aF0.72
aF0.56
aF0.68
aF0.733
aF0.613
aF0.64
aF0.547
aF0.68
asg9
(lp80
F0.606
aF0.658
aF0.6
aF0.632
aF0.645
aF0.593
aF0.6
aF0.652
aF0.663
aF0.609
aF0.556
aF0.611
aF0.589
aF0.591
aF0.677
aF0.577
aF0.641
aF0.675
aF0.627
aF0.6
aF0.647
aF0.667
aF0.623
aF0.532
aF0.708
asg11
(lp81
F0.684
aF0.736
aF0.684
aF0.715
aF0.725
aF0.694
aF0.674
aF0.715
aF0.751
aF0.689
aF0.658
aF0.694
aF0.679
aF0.694
aF0.731
aF0.668
aF0.705
aF0.756
aF0.699
aF0.699
aF0.741
aF0.731
aF0.71
aF0.637
aF0.767
assg13
(dp82
g5
(lp83
F0.22
aF0.212
aF0.314
aF0.254
aF0.263
aF0.237
aF0.254
aF0.314
aF0.254
aF0.22
aF0.237
aF0.271
aF0.246
aF0.203
aF0.195
aF0.314
aF0.254
aF0.356
aF0.271
aF0.356
aF0.246
aF0.153
aF0.246
aF0.28
aF0.229
asg7
(lp84
F0.653
aF0.72
aF0.747
aF0.707
aF0.773
aF0.653
aF0.68
aF0.707
aF0.76
aF0.653
aF0.547
aF0.613
aF0.44
aF0.413
aF0.387
aF0.707
aF0.693
aF0.84
aF0.733
aF0.72
aF0.747
aF0.56
aF0.587
aF0.733
aF0.707
asg9
(lp85
F0.653
aF0.684
aF0.602
aF0.639
aF0.652
aF0.636
aF0.63
aF0.589
aF0.655
aF0.653
aF0.594
aF0.59
aF0.532
aF0.564
aF0.558
aF0.589
aF0.634
aF0.6
aF0.632
aF0.563
aF0.659
aF0.7
aF0.603
aF0.625
aF0.662
asg11
(lp86
F0.731
aF0.762
aF0.71
aF0.731
aF0.751
aF0.72
aF0.72
aF0.694
aF0.751
aF0.731
aF0.679
aF0.684
aF0.632
aF0.648
aF0.642
aF0.694
aF0.725
aF0.72
aF0.731
aF0.674
aF0.751
aF0.736
aF0.689
aF0.725
aF0.746
assg19
(dp87
g5
(lp88
F0.161
aF0.237
aF0.203
aF0.195
aF0.169
aF0.246
aF0.169
aF0.195
aF0.178
aF0.195
aF0.203
aF0.229
aF0.153
aF0.22
aF0.144
aF0.186
aF0.127
aF0.144
aF0.169
aF0.237
aF0.212
aF0.169
aF0.186
aF0.22
aF0.136
asg7
(lp89
F0.52
aF0.6
aF0.573
aF0.427
aF0.587
aF0.467
aF0.507
aF0.6
aF0.56
aF0.413
aF0.533
aF0.453
aF0.387
aF0.44
aF0.56
aF0.453
aF0.493
aF0.587
aF0.653
aF0.667
aF0.56
aF0.52
aF0.507
aF0.507
aF0.587
asg9
(lp90
F0.672
aF0.616
aF0.642
aF0.582
aF0.688
aF0.547
aF0.655
aF0.662
aF0.667
aF0.574
aF0.625
aF0.557
aF0.617
aF0.559
aF0.712
aF0.607
aF0.712
aF0.721
aF0.71
aF0.641
aF0.627
aF0.661
aF0.633
aF0.594
aF0.733
asg11
(lp91
F0.715
aF0.699
aF0.71
aF0.658
aF0.736
aF0.642
aF0.705
aF0.725
aF0.72
aF0.653
aF0.694
aF0.648
aF0.668
aF0.648
aF0.741
aF0.674
aF0.725
aF0.751
aF0.762
aF0.725
aF0.699
aF0.71
aF0.694
aF0.674
aF0.756
assg25
(dp92
g5
(lp93
F0.068
aF0.034
aF0.059
aF0.059
aF0.085
aF0.059
aF0.051
aF0.042
aF0.068
aF0.085
aF0.085
aF0.042
aF0.051
aF0.068
aF0.085
aF0.051
aF0.068
aF0.034
aF0.076
aF0.085
aF0.051
aF0.042
aF0.085
aF0.059
aF0.076
asg7
(lp94
F0.933
aF0.947
aF0.933
aF0.92
aF0.907
aF0.933
aF0.933
aF0.933
aF0.973
aF0.88
aF0.933
aF0.973
aF0.96
aF0.907
aF0.933
aF0.947
aF0.92
aF0.92
aF0.933
aF0.973
aF0.973
aF0.92
aF0.933
aF0.92
aF0.92
asg9
(lp95
F0.6
aF0.486
aF0.593
aF0.5
aF0.583
aF0.5
aF0.471
aF0.508
aF0.439
aF0.692
aF0.395
aF0.485
aF0.37
aF0.485
aF0.481
aF0.6
aF0.5
aF0.667
aF0.487
aF0.5
aF0.545
aF0.7
aF0.533
aF0.833
aF0.5
asg11
(lp96
F0.679
aF0.705
aF0.684
aF0.658
aF0.632
aF0.617
aF0.679
aF0.668
aF0.648
aF0.694
aF0.648
aF0.689
aF0.668
aF0.705
aF0.689
aF0.648
aF0.689
aF0.663
aF0.705
aF0.653
aF0.679
aF0.658
aF0.72
aF0.622
aF0.741
asss.