(dp0
S'10'
p1
(dp2
S'FFT1'
p3
(dp4
S'false_alarm'
p5
(lp6
F0.069
aF0.069
aF0.107
aF0.0
aF0.143
asS'recall'
p7
(lp8
F0.946
aF0.944
aF0.889
aF0.917
aF1.0
asS'times'
p9
(lp10
F60.61726784706116
aF60.49784803390503
aF60.296485900878906
aF60.32290005683899
asS'precision'
p11
(lp12
F0.857
aF0.714
aF0.706
aF0.69
aF0.6
asS'accuracy'
p13
(lp14
F0.848
aF0.846
aF0.844
aF0.781
aF0.781
asss.