(dp0
S'10'
p1
(dp2
S'DT'
p3
(dp4
S'false_alarm'
p5
(lp6
F0.003
aF0.018
aF0.03
aF0.005
aF0.01
aF0.011
aF0.013
aF0.016
aF0.034
aF0.029
aF0.013
aF0.015
aF0.015
aF0.005
aF0.004
aF0.009
aF0.006
aF0.014
aF0.02
aF0.024
aF0.011
aF0.008
aF0.004
aF0.022
aF0.013
asS'recall'
p7
(lp8
F0.997
aF0.982
aF0.97
aF0.995
aF0.99
aF0.989
aF0.987
aF0.984
aF0.966
aF0.971
aF0.987
aF0.985
aF0.985
aF0.995
aF0.996
aF0.991
aF0.994
aF0.986
aF0.98
aF0.976
aF0.989
aF0.992
aF0.996
aF0.978
aF0.987
asS'precision'
p9
(lp10
F0.996
aF0.98
aF0.973
aF0.993
aF0.991
aF0.986
aF0.987
aF0.985
aF0.965
aF0.966
aF0.987
aF0.984
aF0.984
aF0.993
aF0.997
aF0.99
aF0.994
aF0.983
aF0.982
aF0.974
aF0.986
aF0.989
aF0.997
aF0.977
aF0.987
asS'accuracy'
p11
(lp12
F0.997
aF0.982
aF0.973
aF0.994
aF0.991
aF0.988
aF0.988
aF0.985
aF0.967
aF0.97
aF0.988
aF0.985
aF0.985
aF0.994
aF0.997
aF0.991
aF0.994
aF0.985
aF0.982
aF0.976
aF0.988
aF0.991
aF0.997
aF0.979
aF0.988
assS'SVM'
p13
(dp14
g5
(lp15
F0.162
aF0.157
aF0.143
aF0.159
aF0.14
aF0.259
aF0.249
aF0.306
aF0.286
aF0.286
aF0.267
aF0.248
aF0.234
aF0.287
aF0.218
aF0.171
aF0.102
aF0.153
aF0.147
aF0.122
aF0.198
aF0.16
aF0.157
aF0.149
aF0.176
asg7
(lp16
F0.838
aF0.843
aF0.857
aF0.841
aF0.86
aF0.741
aF0.751
aF0.694
aF0.714
aF0.714
aF0.733
aF0.752
aF0.766
aF0.713
aF0.782
aF0.829
aF0.898
aF0.847
aF0.853
aF0.878
aF0.802
aF0.84
aF0.843
aF0.851
aF0.824
asg9
(lp17
F0.852
aF0.859
aF0.865
aF0.847
aF0.861
aF0.782
aF0.759
aF0.697
aF0.737
aF0.718
aF0.727
aF0.759
aF0.761
aF0.704
aF0.774
aF0.827
aF0.884
aF0.834
aF0.847
aF0.869
aF0.817
aF0.829
aF0.847
aF0.857
aF0.837
asg11
(lp18
F0.852
aF0.858
aF0.867
aF0.851
aF0.866
aF0.773
aF0.767
aF0.709
aF0.742
aF0.729
aF0.734
aF0.767
aF0.77
aF0.705
aF0.781
aF0.834
aF0.888
aF0.836
aF0.854
aF0.875
aF0.819
aF0.834
aF0.852
aF0.86
aF0.839
assS'RF'
p19
(dp20
g5
(lp21
F0.004
aF0.011
aF0.023
aF0.009
aF0.0
aF0.008
aF0.016
aF0.014
aF0.014
aF0.019
aF0.019
aF0.015
aF0.011
aF0.005
aF0.006
aF0.016
aF0.006
aF0.018
aF0.006
aF0.015
aF0.009
aF0.005
aF0.003
aF0.018
aF0.009
asg7
(lp22
F0.996
aF0.989
aF0.977
aF0.991
aF1.0
aF0.992
aF0.984
aF0.986
aF0.986
aF0.981
aF0.981
aF0.985
aF0.989
aF0.995
aF0.994
aF0.984
aF0.994
aF0.982
aF0.994
aF0.985
aF0.991
aF0.995
aF0.997
aF0.982
aF0.991
asg9
(lp23
F0.997
aF0.986
aF0.979
aF0.99
aF1.0
aF0.995
aF0.985
aF0.983
aF0.989
aF0.975
aF0.981
aF0.984
aF0.992
aF0.993
aF0.994
aF0.985
aF0.994
aF0.975
aF0.994
aF0.984
aF0.99
aF0.993
aF0.996
aF0.986
aF0.99
asg11
(lp24
F0.997
aF0.988
aF0.979
aF0.991
aF1.0
aF0.994
aF0.985
aF0.985
aF0.988
aF0.979
aF0.982
aF0.985
aF0.991
aF0.994
aF0.994
aF0.985
aF0.994
aF0.979
aF0.994
aF0.985
aF0.991
aF0.994
aF0.997
aF0.985
aF0.991
assS'FFT1'
p25
(dp26
g5
(lp27
F0.308
aF0.288
aF0.274
aF0.259
aF0.284
aF0.197
aF0.182
aF0.35
aF0.305
aF0.299
aF0.333
aF0.323
aF0.31
aF0.325
aF0.259
aF0.293
aF0.298
aF0.31
aF0.234
aF0.335
aF0.268
aF0.247
aF0.244
aF0.335
aF0.264
asg7
(lp28
F0.992
aF0.985
aF0.962
aF0.977
aF0.97
aF1.0
aF1.0
aF1.0
aF1.0
aF1.0
aF0.925
aF0.962
aF0.91
aF0.977
aF0.939
aF0.955
aF0.947
aF0.985
aF0.932
aF0.947
aF1.0
aF1.0
aF1.0
aF1.0
aF1.0
asg9
(lp29
F0.684
aF0.697
aF0.703
aF0.717
aF0.696
aF0.773
aF0.787
aF0.658
aF0.688
aF0.691
aF0.651
aF0.667
aF0.665
aF0.668
aF0.709
aF0.686
aF0.681
aF0.682
aF0.728
aF0.654
aF0.715
aF0.731
aF0.735
aF0.667
aF0.717
asg11
(lp30
F0.813
aF0.822
aF0.821
aF0.836
aF0.818
aF0.882
aF0.891
aF0.791
aF0.818
aF0.821
aF0.77
aF0.792
aF0.779
aF0.796
aF0.821
aF0.807
aF0.801
aF0.809
aF0.833
aF0.778
aF0.84
aF0.852
aF0.855
aF0.799
aF0.842
asssS'100'
p31
(dp32
g3
(dp33
g5
(lp34
F0.008
aF0.013
aF0.019
aF0.014
aF0.013
aF0.004
aF0.015
aF0.011
aF0.014
aF0.01
aF0.015
aF0.011
aF0.02
aF0.024
aF0.014
aF0.01
aF0.02
aF0.011
aF0.011
aF0.024
aF0.008
aF0.015
aF0.013
aF0.027
aF0.016
asg7
(lp35
F0.992
aF0.987
aF0.981
aF0.986
aF0.987
aF0.996
aF0.985
aF0.989
aF0.986
aF0.99
aF0.985
aF0.989
aF0.98
aF0.976
aF0.986
aF0.99
aF0.98
aF0.989
aF0.989
aF0.976
aF0.992
aF0.985
aF0.987
aF0.973
aF0.984
asg9
(lp36
F0.995
aF0.987
aF0.981
aF0.989
aF0.982
aF0.997
aF0.984
aF0.986
aF0.989
aF0.985
aF0.984
aF0.986
aF0.982
aF0.974
aF0.989
aF0.991
aF0.982
aF0.986
aF0.986
aF0.98
aF0.989
aF0.984
aF0.982
aF0.976
aF0.985
asg11
(lp37
F0.994
aF0.988
aF0.982
aF0.988
aF0.985
aF0.997
aF0.985
aF0.988
aF0.988
aF0.988
aF0.985
aF0.988
aF0.982
aF0.976
aF0.988
aF0.991
aF0.982
aF0.988
aF0.988
aF0.979
aF0.991
aF0.985
aF0.985
aF0.976
aF0.985
assg13
(dp38
g5
(lp39
F0.061
aF0.082
aF0.039
aF0.04
aF0.023
aF0.024
aF0.033
aF0.05
aF0.028
aF0.037
aF0.054
aF0.035
aF0.039
aF0.039
aF0.07
aF0.043
aF0.044
aF0.045
aF0.048
aF0.039
aF0.031
aF0.058
aF0.074
aF0.051
aF0.034
asg7
(lp40
F0.939
aF0.918
aF0.961
aF0.96
aF0.977
aF0.976
aF0.967
aF0.95
aF0.972
aF0.963
aF0.946
aF0.965
aF0.961
aF0.961
aF0.93
aF0.957
aF0.956
aF0.955
aF0.952
aF0.961
aF0.969
aF0.942
aF0.926
aF0.949
aF0.966
asg9
(lp41
F0.948
aF0.918
aF0.958
aF0.958
aF0.978
aF0.974
aF0.97
aF0.95
aF0.977
aF0.967
aF0.953
aF0.973
aF0.963
aF0.963
aF0.943
aF0.961
aF0.962
aF0.964
aF0.948
aF0.963
aF0.969
aF0.951
aF0.935
aF0.94
aF0.965
asg11
(lp42
F0.946
aF0.921
aF0.961
aF0.96
aF0.979
aF0.976
aF0.97
aF0.952
aF0.976
aF0.967
aF0.952
aF0.97
aF0.964
aF0.964
aF0.939
aF0.961
aF0.961
aF0.961
aF0.951
aF0.964
aF0.97
aF0.949
aF0.933
aF0.945
aF0.967
assg19
(dp43
g5
(lp44
F0.006
aF0.02
aF0.019
aF0.005
aF0.016
aF0.004
aF0.009
aF0.014
aF0.015
aF0.019
aF0.02
aF0.01
aF0.01
aF0.003
aF0.006
aF0.02
aF0.003
aF0.015
aF0.003
aF0.015
aF0.011
aF0.011
aF0.008
aF0.021
aF0.02
asg7
(lp45
F0.994
aF0.98
aF0.981
aF0.995
aF0.984
aF0.996
aF0.991
aF0.986
aF0.985
aF0.981
aF0.98
aF0.99
aF0.99
aF0.997
aF0.994
aF0.98
aF0.997
aF0.985
aF0.997
aF0.985
aF0.989
aF0.989
aF0.992
aF0.979
aF0.98
asg9
(lp46
F0.994
aF0.976
aF0.981
aF0.993
aF0.979
aF0.997
aF0.99
aF0.983
aF0.984
aF0.975
aF0.976
aF0.985
aF0.991
aF0.996
aF0.994
aF0.982
aF0.996
aF0.978
aF0.996
aF0.984
aF0.986
aF0.986
aF0.989
aF0.984
aF0.982
asg11
(lp47
F0.994
aF0.979
aF0.982
aF0.994
aF0.982
aF0.997
aF0.991
aF0.985
aF0.985
aF0.979
aF0.979
aF0.988
aF0.991
aF0.997
aF0.994
aF0.982
aF0.997
aF0.982
aF0.997
aF0.985
aF0.988
aF0.988
aF0.991
aF0.982
aF0.982
assg25
(dp48
g5
(lp49
F0.308
aF0.278
aF0.284
aF0.244
aF0.239
aF0.197
aF0.197
aF0.315
aF0.391
aF0.274
aF0.242
aF0.192
aF0.32
aF0.299
aF0.284
aF0.258
aF0.253
aF0.305
aF0.269
aF0.249
aF0.283
aF0.268
aF0.239
aF0.34
aF0.213
asg7
(lp50
F1.0
aF1.0
aF1.0
aF1.0
aF1.0
aF1.0
aF1.0
aF1.0
aF1.0
aF1.0
aF1.0
aF1.0
aF1.0
aF1.0
aF1.0
aF1.0
aF1.0
aF1.0
aF1.0
aF1.0
aF1.0
aF1.0
aF1.0
aF1.0
aF1.0
asg9
(lp51
F0.686
aF0.707
aF0.704
aF0.733
aF0.737
aF0.773
aF0.773
aF0.682
aF0.632
aF0.71
aF0.735
aF0.778
aF0.679
aF0.691
aF0.702
aF0.723
aF0.727
aF0.689
aF0.714
aF0.729
aF0.704
aF0.715
aF0.739
aF0.663
aF0.759
asg11
(lp52
F0.816
aF0.834
aF0.83
aF0.854
aF0.857
aF0.882
aF0.882
aF0.812
aF0.766
aF0.836
aF0.855
aF0.885
aF0.809
aF0.821
aF0.83
aF0.846
aF0.849
aF0.818
aF0.839
aF0.851
aF0.831
aF0.84
aF0.858
aF0.796
aF0.872
asssS'50'
p53
(dp54
g3
(dp55
g5
(lp56
F0.006
aF0.019
aF0.038
aF0.013
aF0.014
aF0.011
aF0.015
aF0.014
aF0.016
aF0.011
aF0.023
aF0.011
aF0.015
aF0.016
aF0.02
aF0.018
aF0.005
aF0.018
aF0.024
aF0.028
aF0.005
aF0.019
aF0.016
aF0.019
aF0.006
asg7
(lp57
F0.994
aF0.981
aF0.962
aF0.987
aF0.986
aF0.989
aF0.985
aF0.986
aF0.984
aF0.989
aF0.977
aF0.989
aF0.985
aF0.984
aF0.98
aF0.982
aF0.995
aF0.982
aF0.976
aF0.972
aF0.995
aF0.981
aF0.984
aF0.981
aF0.994
asg9
(lp58
F0.994
aF0.976
aF0.962
aF0.987
aF0.983
aF0.993
aF0.984
aF0.983
aF0.985
aF0.986
aF0.973
aF0.986
aF0.99
aF0.979
aF0.982
aF0.986
aF0.993
aF0.975
aF0.98
aF0.971
aF0.993
aF0.976
aF0.979
aF0.981
aF0.994
asg11
(lp59
F0.994
aF0.979
aF0.964
aF0.988
aF0.985
aF0.991
aF0.985
aF0.985
aF0.985
aF0.988
aF0.976
aF0.988
aF0.988
aF0.982
aF0.982
aF0.985
aF0.994
aF0.979
aF0.979
aF0.973
aF0.994
aF0.979
aF0.982
aF0.982
aF0.994
assg13
(dp60
g5
(lp61
F0.054
aF0.097
aF0.052
aF0.062
aF0.054
aF0.05
aF0.035
aF0.065
aF0.043
aF0.068
aF0.092
aF0.064
aF0.078
aF0.073
aF0.048
aF0.068
aF0.058
aF0.077
aF0.071
aF0.062
aF0.073
aF0.096
aF0.074
aF0.058
aF0.058
asg7
(lp62
F0.946
aF0.903
aF0.948
aF0.938
aF0.946
aF0.95
aF0.965
aF0.935
aF0.957
aF0.932
aF0.908
aF0.936
aF0.922
aF0.927
aF0.952
aF0.932
aF0.942
aF0.923
aF0.929
aF0.938
aF0.927
aF0.904
aF0.926
aF0.942
aF0.942
asg9
(lp63
F0.953
aF0.914
aF0.945
aF0.936
aF0.941
aF0.963
aF0.973
aF0.946
aF0.961
aF0.93
aF0.922
aF0.938
aF0.926
aF0.915
aF0.953
aF0.95
aF0.944
aF0.925
aF0.926
aF0.948
aF0.923
aF0.907
aF0.929
aF0.934
aF0.944
asg11
(lp64
F0.952
aF0.912
aF0.948
aF0.939
aF0.945
aF0.958
aF0.97
aF0.942
aF0.96
aF0.933
aF0.918
aF0.94
aF0.927
aF0.921
aF0.954
aF0.943
aF0.946
aF0.927
aF0.93
aF0.945
aF0.927
aF0.909
aF0.93
aF0.939
aF0.945
assg19
(dp65
g5
(lp66
F0.004
aF0.02
aF0.019
aF0.005
aF0.01
aF0.004
aF0.005
aF0.013
aF0.009
aF0.016
aF0.024
aF0.008
aF0.013
aF0.008
aF0.014
aF0.013
aF0.008
aF0.015
aF0.009
aF0.016
aF0.011
aF0.016
aF0.008
aF0.013
aF0.009
asg7
(lp67
F0.996
aF0.98
aF0.981
aF0.995
aF0.99
aF0.996
aF0.995
aF0.987
aF0.991
aF0.984
aF0.976
aF0.992
aF0.987
aF0.992
aF0.986
aF0.987
aF0.992
aF0.985
aF0.991
aF0.984
aF0.989
aF0.984
aF0.992
aF0.987
aF0.991
asg9
(lp68
F0.997
aF0.976
aF0.981
aF0.993
aF0.985
aF0.997
aF0.993
aF0.987
aF0.99
aF0.979
aF0.974
aF0.989
aF0.987
aF0.989
aF0.989
aF0.987
aF0.995
aF0.978
aF0.99
aF0.985
aF0.986
aF0.979
aF0.989
aF0.987
aF0.99
asg11
(lp69
F0.997
aF0.979
aF0.982
aF0.994
aF0.988
aF0.997
aF0.994
aF0.988
aF0.991
aF0.982
aF0.976
aF0.991
aF0.988
aF0.991
aF0.988
aF0.988
aF0.994
aF0.982
aF0.991
aF0.985
aF0.988
aF0.982
aF0.991
aF0.988
aF0.991
assg25
(dp70
g5
(lp71
F0.338
aF0.263
aF0.284
aF0.259
aF0.218
aF0.182
aF0.237
aF0.315
aF0.381
aF0.249
aF0.293
aF0.242
aF0.345
aF0.228
aF0.234
aF0.232
aF0.273
aF0.294
aF0.254
aF0.284
aF0.288
aF0.263
aF0.223
aF0.35
aF0.239
asg7
(lp72
F1.0
aF1.0
aF1.0
aF1.0
aF1.0
aF1.0
aF1.0
aF1.0
aF1.0
aF1.0
aF1.0
aF1.0
aF1.0
aF1.0
aF1.0
aF1.0
aF1.0
aF1.0
aF1.0
aF1.0
aF1.0
aF1.0
aF1.0
aF1.0
aF1.0
asg9
(lp73
F0.665
aF0.719
aF0.704
aF0.721
aF0.754
aF0.787
aF0.739
aF0.682
aF0.638
aF0.729
aF0.696
aF0.735
aF0.662
aF0.746
aF0.742
aF0.743
aF0.711
aF0.696
aF0.725
aF0.702
aF0.7
aF0.719
aF0.751
aF0.657
aF0.737
asg11
(lp74
F0.798
aF0.843
aF0.83
aF0.845
aF0.869
aF0.891
aF0.858
aF0.812
aF0.772
aF0.851
aF0.825
aF0.855
aF0.794
aF0.863
aF0.86
aF0.861
aF0.837
aF0.824
aF0.848
aF0.83
aF0.828
aF0.843
aF0.867
aF0.79
aF0.857
asssS'25'
p75
(dp76
g3
(dp77
g5
(lp78
F0.004
aF0.024
aF0.014
aF0.015
aF0.008
aF0.014
aF0.01
aF0.019
aF0.019
aF0.014
aF0.031
aF0.018
aF0.015
aF0.015
aF0.01
aF0.024
aF0.023
aF0.023
aF0.009
aF0.024
aF0.014
aF0.005
aF0.003
aF0.02
aF0.02
asg7
(lp79
F0.996
aF0.976
aF0.986
aF0.985
aF0.992
aF0.986
aF0.99
aF0.981
aF0.981
aF0.986
aF0.969
aF0.982
aF0.985
aF0.985
aF0.99
aF0.976
aF0.977
aF0.977
aF0.991
aF0.976
aF0.986
aF0.995
aF0.997
aF0.98
aF0.98
asg9
(lp80
F0.997
aF0.969
aF0.989
aF0.984
aF0.989
aF0.989
aF0.991
aF0.981
aF0.981
aF0.983
aF0.969
aF0.98
aF0.99
aF0.978
aF0.991
aF0.98
aF0.979
aF0.973
aF0.99
aF0.98
aF0.983
aF0.993
aF0.996
aF0.982
aF0.982
asg11
(lp81
F0.997
aF0.973
aF0.988
aF0.985
aF0.991
aF0.988
aF0.991
aF0.982
aF0.982
aF0.985
aF0.97
aF0.982
aF0.988
aF0.982
aF0.991
aF0.979
aF0.979
aF0.976
aF0.991
aF0.979
aF0.985
aF0.994
aF0.997
aF0.982
aF0.982
assg13
(dp82
g5
(lp83
F0.093
aF0.08
aF0.057
aF0.08
aF0.061
aF0.161
aF0.123
aF0.144
aF0.137
aF0.123
aF0.149
aF0.103
aF0.13
aF0.137
aF0.124
aF0.112
aF0.097
aF0.111
aF0.105
aF0.119
aF0.117
aF0.13
aF0.138
aF0.09
aF0.129
asg7
(lp84
F0.907
aF0.92
aF0.943
aF0.92
aF0.939
aF0.839
aF0.877
aF0.856
aF0.863
aF0.877
aF0.851
aF0.897
aF0.87
aF0.863
aF0.876
aF0.888
aF0.903
aF0.889
aF0.895
aF0.881
aF0.883
aF0.87
aF0.862
aF0.91
aF0.871
asg9
(lp85
F0.916
aF0.923
aF0.943
aF0.921
aF0.935
aF0.83
aF0.87
aF0.851
aF0.854
aF0.872
aF0.872
aF0.907
aF0.871
aF0.86
aF0.889
aF0.897
aF0.902
aF0.886
aF0.887
aF0.879
aF0.903
aF0.863
aF0.887
aF0.925
aF0.904
asg11
(lp86
F0.915
aF0.924
aF0.945
aF0.924
aF0.939
aF0.837
aF0.876
aF0.858
aF0.86
aF0.878
aF0.867
aF0.906
aF0.876
aF0.866
aF0.888
aF0.897
aF0.906
aF0.891
aF0.894
aF0.884
aF0.897
aF0.87
aF0.879
aF0.921
aF0.891
assg19
(dp87
g5
(lp88
F0.004
aF0.02
aF0.016
aF0.003
aF0.011
aF0.011
aF0.003
aF0.011
aF0.011
aF0.01
aF0.02
aF0.005
aF0.015
aF0.005
aF0.01
aF0.013
aF0.004
aF0.01
aF0.011
aF0.013
aF0.011
aF0.008
aF0.003
aF0.016
aF0.016
asg7
(lp89
F0.996
aF0.98
aF0.984
aF0.997
aF0.989
aF0.989
aF0.997
aF0.989
aF0.989
aF0.99
aF0.98
aF0.995
aF0.985
aF0.995
aF0.99
aF0.987
aF0.996
aF0.99
aF0.989
aF0.987
aF0.989
aF0.992
aF0.997
aF0.984
aF0.984
asg9
(lp90
F0.997
aF0.976
aF0.985
aF0.996
aF0.986
aF0.993
aF0.996
aF0.986
aF0.986
aF0.985
aF0.976
aF0.993
aF0.99
aF0.993
aF0.991
aF0.987
aF0.997
aF0.985
aF0.986
aF0.987
aF0.986
aF0.989
aF0.996
aF0.985
aF0.985
asg11
(lp91
F0.997
aF0.979
aF0.985
aF0.997
aF0.988
aF0.991
aF0.997
aF0.988
aF0.988
aF0.988
aF0.979
aF0.994
aF0.988
aF0.994
aF0.991
aF0.988
aF0.997
aF0.988
aF0.988
aF0.988
aF0.988
aF0.991
aF0.997
aF0.985
aF0.985
assg25
(dp92
g5
(lp93
F0.323
aF0.273
aF0.284
aF0.264
aF0.223
aF0.263
aF0.177
aF0.274
aF0.249
aF0.259
aF0.232
aF0.283
aF0.274
aF0.254
aF0.34
aF0.283
aF0.293
aF0.284
aF0.264
aF0.228
aF0.288
aF0.278
aF0.274
aF0.299
aF0.244
asg7
(lp94
F1.0
aF1.0
aF1.0
aF1.0
aF1.0
aF1.0
aF1.0
aF0.992
aF0.985
aF0.992
aF0.992
aF0.977
aF0.985
aF0.992
aF0.992
aF1.0
aF1.0
aF1.0
aF1.0
aF1.0
aF0.992
aF1.0
aF1.0
aF1.0
aF1.0
asg9
(lp95
F0.675
aF0.711
aF0.704
aF0.717
aF0.75
aF0.719
aF0.792
aF0.71
aF0.726
aF0.72
aF0.742
aF0.699
aF0.708
aF0.724
aF0.662
aF0.704
aF0.696
aF0.704
aF0.717
aF0.746
aF0.698
aF0.707
aF0.711
aF0.691
aF0.733
asg11
(lp96
F0.807
aF0.837
aF0.83
aF0.842
aF0.866
aF0.843
aF0.894
aF0.833
aF0.845
aF0.842
aF0.858
aF0.822
aF0.83
aF0.845
aF0.793
aF0.831
aF0.825
aF0.83
aF0.842
aF0.863
aF0.825
aF0.834
aF0.836
aF0.821
aF0.854
asss.