(dp0
S'10'
p1
(dp2
S'DT'
p3
(dp4
S'false_alarm'
p5
(lp6
F0.308
aF0.304
aF0.301
aF0.39
aF0.328
aF0.368
aF0.382
aF0.377
aF0.352
aF0.408
aF0.406
aF0.354
aF0.441
aF0.318
aF0.337
aF0.327
aF0.335
aF0.316
aF0.365
aF0.283
aF0.398
aF0.312
aF0.388
aF0.374
aF0.376
asS'recall'
p7
(lp8
F0.692
aF0.696
aF0.699
aF0.61
aF0.672
aF0.632
aF0.618
aF0.623
aF0.648
aF0.592
aF0.594
aF0.646
aF0.559
aF0.682
aF0.663
aF0.673
aF0.665
aF0.684
aF0.635
aF0.717
aF0.602
aF0.688
aF0.612
aF0.626
aF0.624
asS'precision'
p9
(lp10
F0.7
aF0.689
aF0.7
aF0.609
aF0.666
aF0.629
aF0.621
aF0.623
aF0.654
aF0.594
aF0.59
aF0.649
aF0.56
aF0.68
aF0.671
aF0.673
aF0.677
aF0.684
aF0.642
aF0.713
aF0.608
aF0.689
aF0.61
aF0.631
aF0.627
asS'accuracy'
p11
(lp12
F0.715
aF0.699
aF0.715
aF0.627
aF0.679
aF0.642
aF0.642
aF0.642
aF0.674
aF0.617
aF0.601
aF0.668
aF0.585
aF0.694
aF0.689
aF0.689
aF0.694
aF0.699
aF0.663
aF0.725
aF0.632
aF0.705
aF0.627
aF0.653
aF0.648
assS'SVM'
p13
(dp14
g5
(lp15
F0.339
aF0.316
aF0.421
aF0.449
aF0.317
aF0.419
aF0.459
aF0.448
aF0.448
aF0.437
aF0.369
aF0.338
aF0.38
aF0.408
aF0.388
aF0.276
aF0.325
aF0.316
aF0.29
aF0.33
aF0.41
aF0.407
aF0.427
aF0.437
aF0.393
asg7
(lp16
F0.661
aF0.684
aF0.579
aF0.551
aF0.683
aF0.581
aF0.541
aF0.552
aF0.552
aF0.563
aF0.631
aF0.662
aF0.62
aF0.592
aF0.612
aF0.724
aF0.675
aF0.684
aF0.71
aF0.67
aF0.59
aF0.593
aF0.573
aF0.563
aF0.607
asg9
(lp17
F0.695
aF0.675
aF0.609
aF0.551
aF0.677
aF0.596
aF0.568
aF0.567
aF0.663
aF0.581
aF0.633
aF0.685
aF0.688
aF0.633
aF0.629
aF0.718
aF0.677
aF0.681
aF0.711
aF0.663
aF0.635
aF0.623
aF0.659
aF0.697
aF0.675
asg11
(lp18
F0.705
aF0.679
aF0.637
aF0.575
aF0.689
aF0.627
aF0.611
aF0.606
aF0.642
aF0.617
aF0.653
aF0.699
aF0.684
aF0.653
aF0.653
aF0.731
aF0.694
aF0.694
aF0.725
aF0.674
aF0.653
aF0.648
aF0.653
aF0.653
aF0.674
assS'RF'
p19
(dp20
g5
(lp21
F0.301
aF0.311
aF0.284
aF0.396
aF0.349
aF0.386
aF0.361
aF0.319
aF0.308
aF0.341
aF0.334
aF0.337
aF0.376
aF0.305
aF0.327
aF0.354
aF0.339
aF0.321
aF0.342
aF0.277
aF0.339
aF0.374
aF0.39
aF0.339
aF0.314
asg7
(lp22
F0.699
aF0.689
aF0.716
aF0.604
aF0.651
aF0.614
aF0.639
aF0.681
aF0.692
aF0.659
aF0.666
aF0.663
aF0.624
aF0.695
aF0.673
aF0.646
aF0.661
aF0.679
aF0.658
aF0.723
aF0.661
aF0.626
aF0.61
aF0.661
aF0.686
asg9
(lp23
F0.729
aF0.7
aF0.722
aF0.612
aF0.672
aF0.616
aF0.648
aF0.683
aF0.737
aF0.686
aF0.667
aF0.677
aF0.648
aF0.713
aF0.697
aF0.674
aF0.695
aF0.683
aF0.678
aF0.722
aF0.671
aF0.636
aF0.623
aF0.671
aF0.708
asg11
(lp24
F0.736
aF0.715
aF0.736
aF0.637
aF0.689
aF0.637
aF0.668
aF0.699
aF0.736
aF0.699
aF0.684
aF0.694
aF0.668
aF0.725
aF0.71
aF0.689
aF0.705
aF0.699
aF0.694
aF0.736
aF0.689
aF0.658
aF0.648
aF0.689
aF0.72
assS'FFT1'
p25
(dp26
g5
(lp27
F0.466
aF0.517
aF0.508
aF0.517
aF0.517
aF0.525
aF0.492
aF0.551
aF0.5
aF0.534
aF0.314
aF0.339
aF0.356
aF0.28
aF0.305
aF0.331
aF0.339
aF0.314
aF0.305
aF0.373
aF0.28
aF0.356
aF0.263
aF0.381
aF0.373
asg7
(lp28
F0.627
aF0.76
aF0.627
aF0.56
aF0.667
aF0.587
aF0.64
aF0.667
aF0.6
aF0.653
aF0.613
aF0.627
aF0.64
aF0.587
aF0.653
aF0.64
aF0.613
aF0.547
aF0.653
aF0.533
aF0.64
aF0.52
aF0.533
aF0.507
aF0.693
asg9
(lp29
F0.461
aF0.483
aF0.439
aF0.408
aF0.45
aF0.415
aF0.453
aF0.435
aF0.433
aF0.438
aF0.554
aF0.54
aF0.533
aF0.571
aF0.576
aF0.552
aF0.535
aF0.526
aF0.576
aF0.476
aF0.593
aF0.481
aF0.563
aF0.458
aF0.542
asg11
(lp30
F0.57
aF0.591
aF0.544
aF0.513
aF0.554
aF0.518
aF0.56
aF0.534
aF0.539
aF0.539
aF0.658
aF0.648
aF0.642
aF0.668
aF0.679
aF0.658
aF0.642
aF0.632
aF0.679
aF0.591
aF0.689
aF0.596
aF0.658
aF0.575
aF0.653
asssS'100'
p31
(dp32
g3
(dp33
g5
(lp34
F0.267
aF0.273
aF0.265
aF0.354
aF0.323
aF0.334
aF0.287
aF0.295
aF0.277
aF0.358
aF0.334
aF0.325
aF0.358
aF0.284
aF0.28
aF0.347
aF0.296
aF0.288
aF0.319
aF0.268
aF0.376
aF0.284
aF0.334
aF0.403
aF0.293
asg7
(lp35
F0.733
aF0.727
aF0.735
aF0.646
aF0.677
aF0.666
aF0.713
aF0.705
aF0.723
aF0.642
aF0.666
aF0.675
aF0.642
aF0.716
aF0.72
aF0.653
aF0.704
aF0.712
aF0.681
aF0.732
aF0.624
aF0.716
aF0.666
aF0.597
aF0.707
asg9
(lp36
F0.739
aF0.733
aF0.729
aF0.654
aF0.678
aF0.667
aF0.708
aF0.711
aF0.727
aF0.644
aF0.667
aF0.677
aF0.644
aF0.722
aF0.728
aF0.655
aF0.701
aF0.711
aF0.683
aF0.733
aF0.631
aF0.716
aF0.667
aF0.595
aF0.717
asg11
(lp37
F0.751
aF0.746
aF0.741
aF0.674
aF0.694
aF0.684
aF0.72
aF0.725
aF0.741
aF0.663
aF0.684
aF0.694
aF0.663
aF0.736
aF0.741
aF0.674
aF0.715
aF0.725
aF0.699
aF0.746
aF0.653
aF0.731
aF0.684
aF0.611
aF0.731
assg13
(dp38
g5
(lp39
F0.25
aF0.23
aF0.21
aF0.295
aF0.19
aF0.293
aF0.302
aF0.278
aF0.25
aF0.3
aF0.242
aF0.305
aF0.256
aF0.234
aF0.3
aF0.254
aF0.231
aF0.258
aF0.285
aF0.282
aF0.287
aF0.247
aF0.252
aF0.264
aF0.204
asg7
(lp40
F0.75
aF0.77
aF0.79
aF0.705
aF0.81
aF0.707
aF0.698
aF0.722
aF0.75
aF0.7
aF0.758
aF0.695
aF0.744
aF0.766
aF0.7
aF0.746
aF0.769
aF0.742
aF0.715
aF0.718
aF0.713
aF0.753
aF0.748
aF0.736
aF0.796
asg9
(lp41
F0.772
aF0.762
aF0.793
aF0.711
aF0.796
aF0.699
aF0.705
aF0.715
aF0.745
aF0.711
aF0.755
aF0.713
aF0.757
aF0.78
aF0.711
aF0.74
aF0.766
aF0.732
aF0.729
aF0.71
aF0.73
aF0.762
aF0.74
aF0.733
aF0.817
asg11
(lp42
F0.777
aF0.772
aF0.803
aF0.725
aF0.803
aF0.71
aF0.72
aF0.725
aF0.756
aF0.725
aF0.767
aF0.725
aF0.767
aF0.788
aF0.725
aF0.751
aF0.777
aF0.741
aF0.741
aF0.72
aF0.741
aF0.772
aF0.751
aF0.746
aF0.819
assg19
(dp43
g5
(lp44
F0.355
aF0.368
aF0.292
aF0.387
aF0.36
aF0.354
aF0.34
aF0.325
aF0.324
aF0.342
aF0.333
aF0.343
aF0.398
aF0.37
aF0.356
aF0.346
aF0.381
aF0.296
aF0.409
aF0.334
aF0.38
aF0.358
aF0.364
aF0.368
aF0.354
asg7
(lp45
F0.645
aF0.632
aF0.708
aF0.613
aF0.64
aF0.646
aF0.66
aF0.675
aF0.676
aF0.658
aF0.667
aF0.657
aF0.602
aF0.63
aF0.644
aF0.654
aF0.619
aF0.704
aF0.591
aF0.666
aF0.62
aF0.642
aF0.636
aF0.632
aF0.646
asg9
(lp46
F0.659
aF0.647
aF0.733
aF0.643
aF0.643
aF0.654
aF0.678
aF0.696
aF0.689
aF0.671
aF0.677
aF0.687
aF0.63
aF0.675
aF0.676
aF0.702
aF0.65
aF0.717
aF0.596
aF0.692
aF0.642
aF0.667
aF0.654
aF0.642
aF0.674
asg11
(lp47
F0.679
aF0.668
aF0.741
aF0.663
aF0.663
aF0.674
aF0.694
aF0.71
aF0.705
aF0.689
aF0.694
aF0.699
aF0.653
aF0.684
aF0.689
aF0.705
aF0.668
aF0.731
aF0.622
aF0.705
aF0.663
aF0.684
aF0.674
aF0.663
aF0.689
assg25
(dp48
g5
(lp49
F0.246
aF0.356
aF0.305
aF0.364
aF0.466
aF0.39
aF0.322
aF0.314
aF0.347
aF0.297
aF0.458
aF0.331
aF0.314
aF0.364
aF0.364
aF0.373
aF0.347
aF0.331
aF0.364
aF0.364
aF0.322
aF0.339
aF0.314
aF0.398
aF0.364
asg7
(lp50
F0.587
aF0.52
aF0.453
aF0.587
aF0.627
aF0.547
aF0.573
aF0.6
aF0.613
aF0.56
aF0.547
aF0.573
aF0.56
aF0.493
aF0.547
aF0.547
aF0.52
aF0.587
aF0.56
aF0.6
aF0.613
aF0.507
aF0.64
aF0.467
aF0.573
asg9
(lp51
F0.603
aF0.481
aF0.486
aF0.506
aF0.461
aF0.471
aF0.531
aF0.549
aF0.529
aF0.545
aF0.432
aF0.524
aF0.532
aF0.463
aF0.488
aF0.482
aF0.487
aF0.53
aF0.494
aF0.511
aF0.548
aF0.487
aF0.565
aF0.427
aF0.5
asg11
(lp52
F0.689
aF0.596
aF0.601
aF0.617
aF0.57
aF0.585
aF0.637
aF0.653
aF0.637
aF0.648
aF0.544
aF0.632
aF0.637
aF0.58
aF0.601
aF0.596
aF0.601
aF0.637
aF0.606
aF0.622
aF0.653
aF0.601
aF0.668
aF0.549
aF0.611
asssS'50'
p53
(dp54
g3
(dp55
g5
(lp56
F0.286
aF0.214
aF0.314
aF0.385
aF0.264
aF0.262
aF0.3
aF0.228
aF0.222
aF0.299
aF0.296
aF0.299
aF0.286
aF0.271
aF0.26
aF0.282
aF0.339
aF0.308
aF0.291
aF0.276
aF0.33
aF0.309
aF0.264
aF0.334
aF0.247
asg7
(lp57
F0.714
aF0.786
aF0.686
aF0.615
aF0.736
aF0.738
aF0.7
aF0.772
aF0.778
aF0.701
aF0.704
aF0.701
aF0.714
aF0.729
aF0.74
aF0.718
aF0.661
aF0.692
aF0.709
aF0.724
aF0.67
aF0.691
aF0.736
aF0.666
aF0.753
asg9
(lp58
F0.716
aF0.773
aF0.677
aF0.62
aF0.738
aF0.738
aF0.711
aF0.766
aF0.771
aF0.705
aF0.701
aF0.705
aF0.716
aF0.72
aF0.744
aF0.728
aF0.666
aF0.7
aF0.716
aF0.716
aF0.672
aF0.686
aF0.733
aF0.667
aF0.755
asg11
(lp59
F0.731
aF0.777
aF0.684
aF0.642
aF0.751
aF0.751
aF0.725
aF0.777
aF0.782
aF0.72
aF0.715
aF0.72
aF0.731
aF0.731
aF0.756
aF0.741
aF0.684
aF0.715
aF0.731
aF0.725
aF0.689
aF0.699
aF0.746
aF0.684
aF0.767
assg13
(dp60
g5
(lp61
F0.293
aF0.2
aF0.259
aF0.324
aF0.244
aF0.268
aF0.294
aF0.211
aF0.237
aF0.267
aF0.252
aF0.288
aF0.314
aF0.297
aF0.28
aF0.295
aF0.284
aF0.257
aF0.293
aF0.275
aF0.268
aF0.239
aF0.345
aF0.3
aF0.25
asg7
(lp62
F0.707
aF0.8
aF0.741
aF0.676
aF0.756
aF0.732
aF0.706
aF0.789
aF0.763
aF0.733
aF0.748
aF0.712
aF0.686
aF0.703
aF0.72
aF0.705
aF0.716
aF0.743
aF0.707
aF0.725
aF0.732
aF0.761
aF0.655
aF0.7
aF0.75
asg9
(lp63
F0.711
aF0.793
aF0.739
aF0.683
aF0.75
aF0.728
aF0.706
aF0.775
aF0.75
aF0.739
aF0.74
aF0.716
aF0.689
aF0.711
aF0.728
aF0.711
aF0.716
aF0.744
aF0.711
aF0.715
aF0.728
aF0.774
aF0.656
aF0.696
aF0.762
asg11
(lp64
F0.725
aF0.803
aF0.751
aF0.699
aF0.762
aF0.741
aF0.72
aF0.777
aF0.751
aF0.751
aF0.751
aF0.731
aF0.705
aF0.725
aF0.741
aF0.725
aF0.731
aF0.756
aF0.725
aF0.72
aF0.741
aF0.782
aF0.674
aF0.71
aF0.772
assg19
(dp65
g5
(lp66
F0.345
aF0.281
aF0.25
aF0.334
aF0.293
aF0.353
aF0.251
aF0.312
aF0.357
aF0.322
aF0.318
aF0.381
aF0.314
aF0.303
aF0.365
aF0.361
aF0.302
aF0.333
aF0.305
aF0.344
aF0.308
aF0.273
aF0.358
aF0.347
aF0.263
asg7
(lp67
F0.655
aF0.719
aF0.75
aF0.666
aF0.707
aF0.647
aF0.749
aF0.688
aF0.643
aF0.678
aF0.682
aF0.619
aF0.686
aF0.697
aF0.635
aF0.639
aF0.698
aF0.667
aF0.695
aF0.656
aF0.692
aF0.727
aF0.642
aF0.653
aF0.737
asg9
(lp68
F0.689
aF0.735
aF0.772
aF0.702
aF0.717
aF0.659
aF0.8
aF0.717
aF0.66
aF0.695
aF0.702
aF0.63
aF0.719
aF0.721
aF0.661
aF0.668
aF0.712
aF0.683
aF0.713
aF0.665
aF0.7
aF0.76
aF0.667
aF0.672
aF0.752
asg11
(lp69
F0.699
aF0.746
aF0.777
aF0.71
aF0.731
aF0.679
aF0.788
aF0.725
aF0.679
aF0.71
aF0.715
aF0.653
aF0.725
aF0.731
aF0.679
aF0.684
aF0.725
aF0.699
aF0.725
aF0.684
aF0.715
aF0.762
aF0.684
aF0.689
aF0.762
assg25
(dp70
g5
(lp71
F0.203
aF0.39
aF0.237
aF0.347
aF0.415
aF0.407
aF0.356
aF0.322
aF0.305
aF0.288
aF0.424
aF0.339
aF0.347
aF0.322
aF0.415
aF0.364
aF0.288
aF0.331
aF0.39
aF0.364
aF0.347
aF0.381
aF0.28
aF0.398
aF0.297
asg7
(lp72
F0.573
aF0.573
aF0.56
aF0.6
aF0.653
aF0.587
aF0.533
aF0.6
aF0.547
aF0.547
aF0.533
aF0.587
aF0.493
aF0.6
aF0.587
aF0.6
aF0.573
aF0.64
aF0.573
aF0.507
aF0.653
aF0.547
aF0.627
aF0.493
aF0.52
asg9
(lp73
F0.642
aF0.483
aF0.6
aF0.523
aF0.5
aF0.478
aF0.488
aF0.542
aF0.532
aF0.547
aF0.444
aF0.524
aF0.474
aF0.542
aF0.473
aF0.511
aF0.558
aF0.552
aF0.483
aF0.469
aF0.544
aF0.477
aF0.588
aF0.44
aF0.527
asg11
(lp74
F0.71
aF0.596
aF0.684
aF0.632
aF0.611
aF0.591
aF0.601
aF0.648
aF0.637
aF0.648
aF0.56
aF0.632
aF0.591
aF0.648
aF0.585
aF0.622
aF0.658
aF0.658
aF0.596
aF0.585
aF0.653
aF0.591
aF0.684
aF0.56
aF0.632
asssS'25'
p75
(dp76
g3
(dp77
g5
(lp78
F0.344
aF0.277
aF0.339
aF0.299
aF0.288
aF0.308
aF0.362
aF0.311
aF0.252
aF0.334
aF0.353
aF0.325
aF0.34
aF0.306
aF0.296
aF0.354
aF0.324
aF0.25
aF0.326
aF0.304
aF0.26
aF0.291
aF0.303
aF0.379
aF0.249
asg7
(lp79
F0.656
aF0.723
aF0.661
aF0.701
aF0.712
aF0.692
aF0.638
aF0.689
aF0.748
aF0.666
aF0.647
aF0.675
aF0.66
aF0.694
aF0.704
aF0.646
aF0.676
aF0.75
aF0.674
aF0.696
aF0.74
aF0.709
aF0.697
aF0.621
aF0.751
asg9
(lp80
F0.665
aF0.722
aF0.666
aF0.7
aF0.711
aF0.684
aF0.653
aF0.7
aF0.74
aF0.671
aF0.644
aF0.677
aF0.661
aF0.686
aF0.717
aF0.649
aF0.689
aF0.745
aF0.682
aF0.689
aF0.731
aF0.716
aF0.695
aF0.62
aF0.755
asg11
(lp81
F0.684
aF0.736
aF0.684
aF0.715
aF0.725
aF0.694
aF0.674
aF0.715
aF0.751
aF0.689
aF0.658
aF0.694
aF0.679
aF0.694
aF0.731
aF0.668
aF0.705
aF0.756
aF0.699
aF0.699
aF0.741
aF0.731
aF0.71
aF0.637
aF0.767
assg13
(dp82
g5
(lp83
F0.297
aF0.257
aF0.333
aF0.28
aF0.222
aF0.305
aF0.314
aF0.3
aF0.228
aF0.271
aF0.364
aF0.316
aF0.404
aF0.39
aF0.4
aF0.326
aF0.298
aF0.26
aF0.301
aF0.309
aF0.242
aF0.294
aF0.354
aF0.289
aF0.285
asg7
(lp84
F0.703
aF0.743
aF0.667
aF0.72
aF0.778
aF0.695
aF0.686
aF0.7
aF0.772
aF0.729
aF0.636
aF0.684
aF0.596
aF0.61
aF0.6
aF0.674
aF0.702
aF0.74
aF0.699
aF0.691
aF0.758
aF0.706
aF0.646
aF0.711
aF0.715
asg9
(lp85
F0.705
aF0.739
aF0.662
aF0.713
aF0.764
aF0.695
aF0.689
aF0.69
aF0.762
aF0.733
aF0.654
aF0.684
aF0.61
aF0.644
aF0.622
aF0.668
aF0.697
aF0.729
aF0.7
aF0.681
aF0.755
aF0.725
aF0.649
aF0.704
aF0.712
asg11
(lp86
F0.72
aF0.751
aF0.674
aF0.725
aF0.767
aF0.71
aF0.705
aF0.689
aF0.772
aF0.746
aF0.674
aF0.699
aF0.637
aF0.663
aF0.648
aF0.679
aF0.71
aF0.72
aF0.715
aF0.684
aF0.767
aF0.736
aF0.668
aF0.715
aF0.725
assg19
(dp87
g5
(lp88
F0.321
aF0.319
aF0.315
aF0.384
aF0.291
aF0.39
aF0.331
aF0.297
aF0.309
aF0.391
aF0.335
aF0.388
aF0.383
aF0.39
aF0.292
aF0.367
aF0.317
aF0.279
aF0.258
aF0.285
aF0.326
aF0.325
aF0.34
aF0.357
aF0.274
asg7
(lp89
F0.679
aF0.681
aF0.685
aF0.616
aF0.709
aF0.61
aF0.669
aF0.703
aF0.691
aF0.609
aF0.665
aF0.612
aF0.617
aF0.61
aF0.708
aF0.633
aF0.683
aF0.721
aF0.742
aF0.715
aF0.674
aF0.675
aF0.66
aF0.643
aF0.726
asg9
(lp90
F0.703
aF0.683
aF0.694
aF0.635
aF0.724
aF0.618
aF0.691
aF0.711
aF0.706
aF0.629
aF0.677
aF0.623
aF0.651
aF0.623
aF0.733
aF0.654
aF0.721
aF0.743
aF0.75
aF0.712
aF0.682
aF0.696
aF0.678
aF0.653
aF0.75
asg11
(lp91
F0.715
aF0.699
aF0.71
aF0.658
aF0.736
aF0.642
aF0.705
aF0.725
aF0.72
aF0.653
aF0.694
aF0.648
aF0.668
aF0.648
aF0.741
aF0.674
aF0.725
aF0.751
aF0.762
aF0.725
aF0.699
aF0.71
aF0.694
aF0.674
aF0.756
assg25
(dp92
g5
(lp93
F0.246
aF0.364
aF0.263
aF0.356
aF0.466
aF0.373
aF0.373
aF0.288
aF0.356
aF0.28
aF0.458
aF0.339
aF0.322
aF0.398
aF0.39
aF0.331
aF0.271
aF0.314
aF0.288
aF0.339
aF0.415
aF0.39
aF0.322
aF0.364
aF0.398
asg7
(lp94
F0.547
aF0.547
aF0.6
aF0.653
aF0.6
aF0.613
aF0.52
aF0.627
aF0.653
aF0.653
aF0.627
aF0.48
aF0.547
aF0.507
aF0.533
aF0.627
aF0.667
aF0.573
aF0.667
aF0.64
aF0.627
aF0.533
aF0.6
aF0.48
aF0.64
asg9
(lp95
F0.586
aF0.488
aF0.592
aF0.538
aF0.45
aF0.511
aF0.47
aF0.58
aF0.538
aF0.598
aF0.465
aF0.474
aF0.519
aF0.447
aF0.465
aF0.547
aF0.61
aF0.537
aF0.595
aF0.545
aF0.49
aF0.465
aF0.542
aF0.456
aF0.505
asg11
(lp96
F0.674
aF0.601
aF0.684
aF0.648
aF0.56
aF0.622
aF0.585
aF0.679
aF0.648
aF0.694
aF0.575
aF0.591
aF0.627
aF0.565
aF0.58
aF0.653
aF0.705
aF0.642
aF0.694
aF0.653
aF0.601
aF0.58
aF0.648
aF0.575
aF0.617
asss.