(dp0
S'TFIDF'
p1
(dp2
S'DT'
p3
(dp4
S'false_alarm'
p5
(lp6
F0.231
aF0.257
aF0.214
aF0.237
aF0.213
aF0.29
aF0.247
aF0.256
aF0.264
aF0.303
aF0.248
aF0.247
aF0.226
aF0.234
aF0.262
aF0.306
aF0.287
aF0.289
aF0.283
aF0.301
aF0.287
aF0.244
aF0.261
aF0.355
aF0.219
asS'recall'
p7
(lp8
F0.769
aF0.743
aF0.786
aF0.763
aF0.787
aF0.71
aF0.753
aF0.744
aF0.736
aF0.697
aF0.752
aF0.753
aF0.774
aF0.766
aF0.738
aF0.694
aF0.713
aF0.711
aF0.717
aF0.699
aF0.713
aF0.756
aF0.739
aF0.645
aF0.781
asS'precision'
p9
(lp10
F0.771
aF0.744
aF0.795
aF0.756
aF0.773
aF0.711
aF0.755
aF0.75
aF0.738
aF0.695
aF0.739
aF0.755
aF0.766
aF0.772
aF0.738
aF0.688
aF0.722
aF0.723
aF0.713
aF0.7
aF0.722
aF0.75
aF0.734
aF0.643
aF0.789
asS'accuracy'
p11
(lp12
F0.782
aF0.756
aF0.803
aF0.767
aF0.772
aF0.725
aF0.767
aF0.762
aF0.751
aF0.71
aF0.741
aF0.767
aF0.777
aF0.782
aF0.751
aF0.699
aF0.736
aF0.736
aF0.725
aF0.715
aF0.736
aF0.762
aF0.746
aF0.658
aF0.798
assS'SVM'
p13
(dp14
g5
(lp15
F0.247
aF0.17
aF0.191
aF0.293
aF0.204
aF0.216
aF0.24
aF0.2
aF0.216
aF0.287
aF0.256
aF0.253
aF0.266
aF0.17
aF0.224
aF0.234
aF0.201
aF0.25
aF0.285
aF0.21
aF0.268
aF0.23
aF0.252
aF0.245
aF0.137
asg7
(lp16
F0.753
aF0.83
aF0.809
aF0.707
aF0.796
aF0.784
aF0.76
aF0.8
aF0.784
aF0.713
aF0.744
aF0.747
aF0.734
aF0.83
aF0.776
aF0.766
aF0.799
aF0.75
aF0.715
aF0.79
aF0.732
aF0.77
aF0.748
aF0.755
aF0.863
asg9
(lp17
F0.792
aF0.825
aF0.803
aF0.711
aF0.788
aF0.782
aF0.76
aF0.793
aF0.782
aF0.722
aF0.736
aF0.749
aF0.733
aF0.831
aF0.771
aF0.772
aF0.798
aF0.745
aF0.738
aF0.777
aF0.733
aF0.778
aF0.74
aF0.746
aF0.857
asg11
(lp18
F0.788
aF0.834
aF0.813
aF0.725
aF0.798
aF0.793
aF0.772
aF0.803
aF0.793
aF0.736
aF0.746
aF0.762
aF0.746
aF0.839
aF0.782
aF0.782
aF0.808
aF0.756
aF0.746
aF0.782
aF0.746
aF0.788
aF0.751
aF0.756
aF0.865
assS'RF'
p19
(dp20
g5
(lp21
F0.278
aF0.221
aF0.208
aF0.307
aF0.251
aF0.256
aF0.261
aF0.237
aF0.228
aF0.316
aF0.231
aF0.29
aF0.288
aF0.247
aF0.288
aF0.25
aF0.273
aF0.25
aF0.292
aF0.259
aF0.345
aF0.246
aF0.317
aF0.281
aF0.198
asg7
(lp22
F0.722
aF0.779
aF0.792
aF0.693
aF0.749
aF0.744
aF0.739
aF0.763
aF0.772
aF0.684
aF0.769
aF0.71
aF0.712
aF0.753
aF0.712
aF0.75
aF0.727
aF0.75
aF0.708
aF0.741
aF0.655
aF0.754
aF0.683
aF0.719
aF0.802
asg9
(lp23
F0.765
aF0.79
aF0.81
aF0.714
aF0.756
aF0.75
aF0.76
aF0.76
aF0.796
aF0.71
aF0.766
aF0.731
aF0.74
aF0.762
aF0.74
aF0.762
aF0.76
aF0.762
aF0.733
aF0.739
aF0.689
aF0.779
aF0.694
aF0.735
aF0.822
asg11
(lp24
F0.762
aF0.798
aF0.813
aF0.725
aF0.767
aF0.762
aF0.767
aF0.772
aF0.798
aF0.72
aF0.777
aF0.741
aF0.746
aF0.772
aF0.746
aF0.772
aF0.762
aF0.772
aF0.741
aF0.751
aF0.699
aF0.782
aF0.71
aF0.746
aF0.824
assS'FFT1'
p25
(dp26
g5
(lp27
F0.771
aF0.763
aF0.746
aF0.78
aF0.839
aF0.797
aF0.78
aF0.797
aF0.703
aF0.78
aF0.822
aF0.746
aF0.754
aF0.729
aF0.788
aF0.814
aF0.746
aF0.729
aF0.805
aF0.746
aF0.746
aF0.754
aF0.805
aF0.805
aF0.703
asg7
(lp28
F1.0
aF1.0
aF1.0
aF0.973
aF1.0
aF1.0
aF0.973
aF1.0
aF0.987
aF1.0
aF1.0
aF0.987
aF1.0
aF1.0
aF1.0
aF1.0
aF1.0
aF1.0
aF1.0
aF1.0
aF0.987
aF0.987
aF1.0
aF0.96
aF1.0
asg9
(lp29
F0.452
aF0.455
aF0.46
aF0.442
aF0.431
aF0.444
aF0.442
aF0.444
aF0.471
aF0.449
aF0.436
aF0.457
aF0.457
aF0.466
aF0.446
aF0.439
aF0.46
aF0.466
aF0.441
aF0.46
aF0.457
aF0.454
aF0.441
aF0.431
aF0.475
asg11
(lp30
F0.528
aF0.534
aF0.544
aF0.513
aF0.487
aF0.513
aF0.513
aF0.513
aF0.565
aF0.523
aF0.497
aF0.539
aF0.539
aF0.554
aF0.518
aF0.503
aF0.544
aF0.554
aF0.508
aF0.544
aF0.539
aF0.534
aF0.508
aF0.492
aF0.57
asssS'HASHING'
p31
(dp32
g3
(dp33
g5
(lp34
F0.287
aF0.279
aF0.279
aF0.36
aF0.272
aF0.25
aF0.272
aF0.325
aF0.263
aF0.307
aF0.326
aF0.24
aF0.295
aF0.222
aF0.295
aF0.325
aF0.334
aF0.296
aF0.286
aF0.27
aF0.288
aF0.302
aF0.273
aF0.314
aF0.236
asg7
(lp35
F0.713
aF0.721
aF0.721
aF0.64
aF0.728
aF0.75
aF0.728
aF0.675
aF0.737
aF0.693
aF0.674
aF0.76
aF0.705
aF0.778
aF0.705
aF0.675
aF0.666
aF0.704
aF0.714
aF0.73
aF0.712
aF0.698
aF0.727
aF0.686
aF0.764
asg9
(lp36
F0.722
aF0.722
aF0.722
aF0.643
aF0.723
aF0.741
aF0.723
aF0.677
aF0.73
aF0.69
aF0.668
aF0.76
aF0.711
aF0.776
aF0.711
aF0.674
aF0.692
aF0.701
aF0.705
aF0.724
aF0.711
aF0.705
aF0.716
aF0.685
aF0.773
asg11
(lp37
F0.736
aF0.736
aF0.736
aF0.663
aF0.736
aF0.751
aF0.736
aF0.694
aF0.741
aF0.705
aF0.679
aF0.772
aF0.725
aF0.788
aF0.725
aF0.689
aF0.705
aF0.715
aF0.715
aF0.736
aF0.725
aF0.72
aF0.72
aF0.699
aF0.782
assg13
(dp38
g5
(lp39
F0.228
aF0.161
aF0.22
aF0.297
aF0.234
aF0.26
aF0.242
aF0.173
aF0.202
aF0.248
aF0.19
aF0.24
aF0.268
aF0.205
aF0.185
aF0.198
aF0.201
aF0.236
aF0.262
aF0.222
aF0.239
aF0.227
aF0.234
aF0.23
aF0.157
asg7
(lp40
F0.772
aF0.839
aF0.78
aF0.703
aF0.766
aF0.74
aF0.758
aF0.827
aF0.798
aF0.752
aF0.81
aF0.76
aF0.732
aF0.795
aF0.815
aF0.802
aF0.799
aF0.764
aF0.738
aF0.778
aF0.761
aF0.773
aF0.766
aF0.77
aF0.843
asg9
(lp41
F0.796
aF0.83
aF0.776
aF0.705
aF0.755
aF0.744
aF0.755
aF0.815
aF0.788
aF0.749
aF0.796
aF0.76
aF0.733
aF0.799
aF0.809
aF0.798
aF0.798
aF0.766
aF0.744
aF0.764
aF0.774
aF0.777
aF0.757
aF0.759
aF0.841
asg11
(lp42
F0.798
aF0.839
aF0.788
aF0.72
aF0.762
aF0.756
aF0.767
aF0.824
aF0.798
aF0.762
aF0.803
aF0.772
aF0.746
aF0.808
aF0.819
aF0.808
aF0.808
aF0.777
aF0.756
aF0.767
aF0.782
aF0.788
aF0.767
aF0.767
aF0.85
assg19
(dp43
g5
(lp44
F0.287
aF0.281
aF0.303
aF0.327
aF0.282
aF0.222
aF0.284
aF0.222
aF0.312
aF0.328
aF0.264
aF0.299
aF0.259
aF0.259
aF0.288
aF0.248
aF0.291
aF0.256
aF0.349
aF0.273
aF0.279
aF0.248
aF0.251
aF0.263
aF0.224
asg7
(lp45
F0.713
aF0.719
aF0.697
aF0.673
aF0.718
aF0.778
aF0.716
aF0.778
aF0.688
aF0.672
aF0.736
aF0.701
aF0.741
aF0.741
aF0.712
aF0.752
aF0.709
aF0.744
aF0.651
aF0.727
aF0.721
aF0.752
aF0.749
aF0.737
aF0.776
asg9
(lp46
F0.764
aF0.735
aF0.721
aF0.697
aF0.728
aF0.801
aF0.747
aF0.801
aF0.689
aF0.708
aF0.733
aF0.705
aF0.769
aF0.759
aF0.74
aF0.782
aF0.756
aF0.757
aF0.672
aF0.727
aF0.755
aF0.77
aF0.749
aF0.752
aF0.792
asg11
(lp47
F0.756
aF0.746
aF0.731
aF0.71
aF0.741
aF0.803
aF0.751
aF0.803
aF0.705
aF0.715
aF0.746
aF0.72
aF0.772
aF0.767
aF0.746
aF0.782
aF0.751
aF0.767
aF0.689
aF0.741
aF0.756
aF0.777
aF0.762
aF0.762
aF0.798
assg25
(dp48
g5
(lp49
F0.042
aF0.0
aF0.0
aF0.0
aF0.0
aF0.941
aF0.0
aF0.0
aF0.0
aF0.0
aF0.0
aF0.008
aF0.0
aF0.0
aF0.915
aF0.0
aF0.0
aF0.0
aF0.932
aF0.0
aF0.0
aF0.0
aF0.0
aF0.0
aF0.814
asg7
(lp50
F0.027
aF0.0
aF0.0
aF0.013
aF0.013
aF1.0
aF0.0
aF0.013
aF0.0
aF0.0
aF0.0
aF0.013
aF0.0
aF0.0
aF0.973
aF0.0
aF0.0
aF0.0
aF0.96
aF0.0
aF0.013
aF0.0
aF0.0
aF0.013
aF0.973
asg9
(lp51
F0.286
aF0.0
aF0.0
aF1.0
aF1.0
aF0.403
aF0.0
aF1.0
aF0.0
aF0.0
aF0.0
aF0.5
aF0.0
aF0.0
aF0.403
aF0.0
aF0.0
aF0.0
aF0.396
aF0.0
aF1.0
aF0.0
aF0.0
aF1.0
aF0.432
asg11
(lp52
F0.596
aF0.611
aF0.611
aF0.617
aF0.617
aF0.425
aF0.611
aF0.617
aF0.611
aF0.611
aF0.611
aF0.611
aF0.611
aF0.611
aF0.43
aF0.611
aF0.611
aF0.611
aF0.415
aF0.611
aF0.617
aF0.611
aF0.611
aF0.617
aF0.492
asss.