(dp0
S'TFIDF'
p1
(dp2
S'DT'
p3
(dp4
S'false_alarm'
p5
(lp6
F0.299
aF0.297
aF0.228
aF0.301
aF0.225
aF0.286
aF0.284
aF0.28
aF0.189
aF0.279
aF0.275
aF0.219
aF0.309
aF0.279
aF0.226
aF0.293
aF0.256
aF0.32
aF0.247
aF0.285
aF0.281
aF0.238
aF0.256
aF0.277
aF0.321
asS'recall'
p7
(lp8
F0.701
aF0.703
aF0.772
aF0.699
aF0.775
aF0.714
aF0.716
aF0.72
aF0.811
aF0.721
aF0.725
aF0.781
aF0.691
aF0.721
aF0.774
aF0.707
aF0.744
aF0.68
aF0.753
aF0.715
aF0.719
aF0.762
aF0.744
aF0.723
aF0.679
asS'precision'
p9
(lp10
F0.703
aF0.71
aF0.792
aF0.689
aF0.78
aF0.735
aF0.718
aF0.715
aF0.83
aF0.721
aF0.725
aF0.769
aF0.691
aF0.721
aF0.772
aF0.71
aF0.728
aF0.673
aF0.744
aF0.714
aF0.713
aF0.78
aF0.737
aF0.711
aF0.69
asS'accuracy'
p11
(lp12
F0.727
aF0.733
aF0.804
aF0.709
aF0.797
aF0.753
aF0.74
aF0.736
aF0.838
aF0.743
aF0.747
aF0.787
aF0.716
aF0.743
aF0.791
aF0.733
aF0.74
aF0.696
aF0.764
aF0.736
aF0.733
aF0.793
aF0.757
aF0.73
aF0.716
assS'SVM'
p13
(dp14
g5
(lp15
F0.228
aF0.275
aF0.257
aF0.286
aF0.24
aF0.288
aF0.226
aF0.242
aF0.169
aF0.258
aF0.244
aF0.213
aF0.217
aF0.235
aF0.257
aF0.249
aF0.23
aF0.262
aF0.224
aF0.221
aF0.238
aF0.247
aF0.281
aF0.218
aF0.226
asg7
(lp16
F0.772
aF0.725
aF0.743
aF0.714
aF0.76
aF0.712
aF0.774
aF0.758
aF0.831
aF0.742
aF0.756
aF0.787
aF0.783
aF0.765
aF0.743
aF0.751
aF0.77
aF0.738
aF0.776
aF0.779
aF0.762
aF0.753
aF0.719
aF0.782
aF0.774
asg9
(lp17
F0.798
aF0.753
aF0.761
aF0.729
aF0.803
aF0.763
aF0.776
aF0.776
aF0.855
aF0.808
aF0.817
aF0.783
aF0.811
aF0.814
aF0.761
aF0.763
aF0.777
aF0.816
aF0.79
aF0.815
aF0.78
aF0.786
aF0.738
aF0.799
aF0.82
asg11
(lp18
F0.807
aF0.767
aF0.777
aF0.75
aF0.804
aF0.767
aF0.793
aF0.791
aF0.858
aF0.797
aF0.807
aF0.8
aF0.818
aF0.811
aF0.777
aF0.78
aF0.793
aF0.797
aF0.804
aF0.818
aF0.793
aF0.793
aF0.757
aF0.811
aF0.818
assS'RF'
p19
(dp20
g5
(lp21
F0.282
aF0.266
aF0.176
aF0.238
aF0.229
aF0.297
aF0.222
aF0.222
aF0.172
aF0.212
aF0.297
aF0.185
aF0.202
aF0.295
aF0.246
aF0.282
aF0.235
aF0.275
aF0.261
aF0.204
aF0.271
aF0.231
aF0.293
aF0.239
aF0.195
asg7
(lp22
F0.718
aF0.734
aF0.824
aF0.762
aF0.771
aF0.703
aF0.778
aF0.778
aF0.828
aF0.788
aF0.703
aF0.815
aF0.798
aF0.705
aF0.754
aF0.718
aF0.765
aF0.725
aF0.739
aF0.796
aF0.729
aF0.769
aF0.707
aF0.761
aF0.805
asg9
(lp23
F0.734
aF0.76
aF0.824
aF0.747
aF0.781
aF0.71
aF0.76
aF0.772
aF0.823
aF0.821
aF0.71
aF0.804
aF0.794
aF0.7
aF0.75
aF0.734
aF0.751
aF0.758
aF0.73
aF0.814
aF0.726
aF0.769
aF0.694
aF0.765
aF0.81
asg11
(lp24
F0.753
aF0.773
aF0.838
aF0.764
aF0.797
aF0.733
aF0.773
aF0.791
aF0.838
aF0.824
aF0.733
aF0.82
aF0.811
aF0.723
aF0.77
aF0.753
aF0.767
aF0.77
aF0.75
aF0.824
aF0.747
aF0.787
aF0.709
aF0.784
aF0.824
assS'FFT1'
p25
(dp26
g5
(lp27
F0.0
aF0.0
aF0.981
aF0.0
aF0.019
aF0.019
aF0.0
aF0.019
aF0.019
aF0.0
aF0.0
aF0.037
aF0.057
aF0.0
aF0.0
aF0.037
aF0.056
aF0.0
aF0.0
aF0.019
aF0.0
aF0.0
aF0.0
aF0.019
aF0.038
asg7
(lp28
F0.0
aF0.021
aF0.989
aF0.011
aF0.011
aF0.0
aF0.042
aF0.011
aF0.0
aF0.0
aF0.021
aF0.021
aF0.032
aF0.0
aF0.0
aF0.271
aF0.031
aF0.0
aF0.032
aF0.011
aF0.125
aF0.01
aF0.0
aF0.0
aF0.021
asg9
(lp29
F0.0
aF1.0
aF0.644
aF1.0
aF0.5
aF0.0
aF1.0
aF0.5
aF0.0
aF0.0
aF1.0
aF0.5
aF0.5
aF0.0
aF0.0
aF0.929
aF0.5
aF0.0
aF1.0
aF0.5
aF1.0
aF1.0
aF0.0
aF0.0
aF0.5
asg11
(lp30
F0.36
aF0.373
aF0.642
aF0.365
aF0.358
aF0.353
aF0.387
aF0.358
aF0.351
aF0.358
aF0.373
aF0.36
aF0.358
aF0.358
aF0.358
aF0.52
aF0.36
aF0.358
aF0.378
aF0.358
aF0.44
aF0.367
aF0.358
aF0.351
aF0.358
asssS'HASHING'
p31
(dp32
g3
(dp33
g5
(lp34
F0.266
aF0.297
aF0.338
aF0.239
aF0.304
aF0.32
aF0.266
aF0.261
aF0.246
aF0.274
aF0.322
aF0.218
aF0.246
aF0.283
aF0.246
aF0.312
aF0.284
aF0.268
aF0.246
aF0.226
aF0.299
aF0.271
aF0.301
aF0.253
aF0.279
asg7
(lp35
F0.734
aF0.703
aF0.662
aF0.761
aF0.696
aF0.68
aF0.734
aF0.739
aF0.754
aF0.726
aF0.678
aF0.782
aF0.754
aF0.717
aF0.754
aF0.688
aF0.716
aF0.732
aF0.754
aF0.774
aF0.701
aF0.729
aF0.699
aF0.747
aF0.721
asg9
(lp36
F0.733
aF0.71
aF0.662
aF0.765
aF0.725
aF0.695
aF0.717
aF0.73
aF0.75
aF0.728
aF0.681
aF0.776
aF0.75
aF0.72
aF0.75
aF0.695
aF0.704
aF0.744
aF0.75
aF0.772
aF0.687
aF0.751
aF0.689
aF0.733
aF0.721
asg11
(lp37
F0.753
aF0.733
aF0.689
aF0.784
aF0.743
aF0.72
aF0.727
aF0.75
aF0.77
aF0.75
aF0.707
aF0.793
aF0.77
aF0.743
aF0.77
aF0.72
aF0.72
aF0.764
aF0.77
aF0.791
aF0.7
aF0.767
aF0.709
aF0.75
aF0.743
assg13
(dp38
g5
(lp39
F0.281
aF0.28
aF0.243
aF0.273
aF0.24
aF0.277
aF0.221
aF0.242
aF0.201
aF0.244
aF0.264
aF0.22
aF0.271
aF0.27
aF0.291
aF0.237
aF0.262
aF0.287
aF0.234
aF0.183
aF0.275
aF0.264
aF0.276
aF0.206
aF0.269
asg7
(lp40
F0.719
aF0.72
aF0.757
aF0.727
aF0.76
aF0.723
aF0.779
aF0.758
aF0.799
aF0.756
aF0.736
aF0.78
aF0.729
aF0.73
aF0.709
aF0.763
aF0.738
aF0.713
aF0.766
aF0.817
aF0.725
aF0.736
aF0.724
aF0.794
aF0.731
asg9
(lp41
F0.744
aF0.756
aF0.766
aF0.736
aF0.803
aF0.787
aF0.784
aF0.776
aF0.843
aF0.808
aF0.788
aF0.793
aF0.756
aF0.769
aF0.73
aF0.792
aF0.758
aF0.771
aF0.773
aF0.854
aF0.753
aF0.788
aF0.747
aF0.794
aF0.784
asg11
(lp42
F0.76
aF0.767
aF0.784
aF0.757
aF0.804
aF0.78
aF0.8
aF0.791
aF0.838
aF0.804
aF0.787
aF0.807
aF0.77
aF0.777
aF0.75
aF0.8
aF0.773
aF0.77
aF0.791
aF0.851
aF0.767
aF0.787
aF0.764
aF0.811
aF0.784
assg19
(dp43
g5
(lp44
F0.282
aF0.24
aF0.249
aF0.203
aF0.212
aF0.183
aF0.269
aF0.253
aF0.249
aF0.232
aF0.293
aF0.184
aF0.156
aF0.222
aF0.218
aF0.28
aF0.237
aF0.245
aF0.228
aF0.203
aF0.274
aF0.263
aF0.231
aF0.179
aF0.228
asg7
(lp45
F0.718
aF0.76
aF0.751
aF0.797
aF0.788
aF0.817
aF0.731
aF0.747
aF0.751
aF0.768
aF0.707
aF0.816
aF0.844
aF0.778
aF0.782
aF0.72
aF0.763
aF0.755
aF0.772
aF0.797
aF0.726
aF0.737
aF0.769
aF0.821
aF0.772
asg9
(lp46
F0.708
aF0.77
aF0.758
aF0.787
aF0.821
aF0.82
aF0.717
aF0.759
aF0.758
aF0.795
aF0.71
aF0.811
aF0.847
aF0.772
aF0.767
aF0.718
aF0.761
aF0.792
aF0.759
aF0.787
aF0.732
aF0.748
aF0.765
aF0.808
aF0.792
asg11
(lp47
F0.727
aF0.787
aF0.777
aF0.804
aF0.824
aF0.833
aF0.733
aF0.777
aF0.777
aF0.804
aF0.733
aF0.827
aF0.858
aF0.791
aF0.784
aF0.74
aF0.78
aF0.797
aF0.777
aF0.804
aF0.753
aF0.767
aF0.784
aF0.824
aF0.804
assg25
(dp48
g5
(lp49
F0.926
aF0.944
aF0.057
aF0.943
aF0.962
aF0.981
aF0.019
aF0.962
aF0.925
aF0.925
aF0.944
aF0.019
aF0.943
aF0.925
aF0.925
aF0.87
aF0.926
aF0.057
aF0.943
aF0.943
aF0.926
aF0.037
aF1.0
aF0.887
aF0.906
asg7
(lp50
F0.979
aF1.0
aF0.042
aF0.958
aF0.989
aF1.0
aF0.021
aF0.989
aF1.0
aF0.989
aF1.0
aF0.01
aF0.989
aF0.979
aF0.989
aF0.99
aF0.979
aF0.021
aF1.0
aF0.979
aF1.0
aF0.031
aF1.0
aF0.968
aF0.989
asg9
(lp51
F0.653
aF0.653
aF0.571
aF0.645
aF0.648
aF0.644
aF0.667
aF0.648
aF0.66
aF0.657
aF0.653
aF0.5
aF0.653
aF0.655
aF0.657
aF0.669
aF0.653
aF0.4
aF0.655
aF0.65
aF0.658
aF0.6
aF0.642
aF0.662
aF0.662
asg11
(lp52
F0.653
aF0.66
aF0.365
aF0.635
aF0.649
aF0.647
aF0.367
aF0.649
aF0.669
aF0.662
aF0.66
aF0.36
aF0.655
aF0.655
aF0.662
aF0.68
aF0.653
aF0.351
aF0.662
aF0.649
aF0.667
aF0.367
aF0.642
aF0.662
aF0.669
asss.