(dp0
S'TFIDF'
p1
(dp2
S'DT'
p3
(dp4
S'false_alarm'
p5
(lp6
F0.0
aF0.0
aF0.0
aF0.0
aF0.0
aF0.0
aF0.0
aF0.0
aF0.0
aF0.0
aF0.0
aF0.0
aF0.0
aF0.0
aF0.0
aF0.0
aF0.0
aF0.0
aF0.0
aF0.0
aF0.0
aF0.0
aF0.0
aF0.0
aF0.0
asS'recall'
p7
(lp8
F1.0
aF1.0
aF1.0
aF1.0
aF1.0
aF1.0
aF1.0
aF1.0
aF1.0
aF1.0
aF1.0
aF1.0
aF1.0
aF1.0
aF1.0
aF1.0
aF1.0
aF1.0
aF1.0
aF1.0
aF1.0
aF1.0
aF1.0
aF1.0
aF1.0
asS'precision'
p9
(lp10
F1.0
aF1.0
aF1.0
aF1.0
aF1.0
aF1.0
aF1.0
aF1.0
aF1.0
aF1.0
aF1.0
aF1.0
aF1.0
aF1.0
aF1.0
aF1.0
aF1.0
aF1.0
aF1.0
aF1.0
aF1.0
aF1.0
aF1.0
aF1.0
aF1.0
asS'accuracy'
p11
(lp12
F1.0
aF1.0
aF1.0
aF1.0
aF1.0
aF1.0
aF1.0
aF1.0
aF1.0
aF1.0
aF1.0
aF1.0
aF1.0
aF1.0
aF1.0
aF1.0
aF1.0
aF1.0
aF1.0
aF1.0
aF1.0
aF1.0
aF1.0
aF1.0
aF1.0
assS'SVM'
p13
(dp14
g5
(lp15
F0.0
aF0.0
aF0.0
aF0.0
aF0.0
aF0.0
aF0.0
aF0.0
aF0.0
aF0.0
aF0.0
aF0.0
aF0.0
aF0.0
aF0.0
aF0.0
aF0.0
aF0.0
aF0.0
aF0.0
aF0.0
aF0.0
aF0.0
aF0.0
aF0.0
asg7
(lp16
F1.0
aF1.0
aF1.0
aF1.0
aF1.0
aF1.0
aF1.0
aF1.0
aF1.0
aF1.0
aF1.0
aF1.0
aF1.0
aF1.0
aF1.0
aF1.0
aF1.0
aF1.0
aF1.0
aF1.0
aF1.0
aF1.0
aF1.0
aF1.0
aF1.0
asg9
(lp17
F1.0
aF1.0
aF1.0
aF1.0
aF1.0
aF1.0
aF1.0
aF1.0
aF1.0
aF1.0
aF1.0
aF1.0
aF1.0
aF1.0
aF1.0
aF1.0
aF1.0
aF1.0
aF1.0
aF1.0
aF1.0
aF1.0
aF1.0
aF1.0
aF1.0
asg11
(lp18
F1.0
aF1.0
aF1.0
aF1.0
aF1.0
aF1.0
aF1.0
aF1.0
aF1.0
aF1.0
aF1.0
aF1.0
aF1.0
aF1.0
aF1.0
aF1.0
aF1.0
aF1.0
aF1.0
aF1.0
aF1.0
aF1.0
aF1.0
aF1.0
aF1.0
assS'RF'
p19
(dp20
g5
(lp21
F0.0
aF0.003
aF0.0
aF0.008
aF0.0
aF0.0
aF0.004
aF0.015
aF0.004
aF0.01
aF0.004
aF0.0
aF0.008
aF0.009
aF0.0
aF0.0
aF0.0
aF0.004
aF0.004
aF0.011
aF0.004
aF0.008
aF0.004
aF0.008
aF0.01
asg7
(lp22
F1.0
aF0.997
aF1.0
aF0.992
aF1.0
aF1.0
aF0.996
aF0.985
aF0.996
aF0.99
aF0.996
aF1.0
aF0.992
aF0.991
aF1.0
aF1.0
aF1.0
aF0.996
aF0.996
aF0.989
aF0.996
aF0.992
aF0.996
aF0.992
aF0.99
asg9
(lp23
F1.0
aF0.996
aF1.0
aF0.995
aF1.0
aF1.0
aF0.997
aF0.99
aF0.997
aF0.991
aF0.997
aF1.0
aF0.995
aF0.99
aF1.0
aF1.0
aF1.0
aF0.997
aF0.997
aF0.986
aF0.997
aF0.995
aF0.997
aF0.995
aF0.991
asg11
(lp24
F1.0
aF0.997
aF1.0
aF0.994
aF1.0
aF1.0
aF0.997
aF0.988
aF0.997
aF0.991
aF0.997
aF1.0
aF0.994
aF0.991
aF1.0
aF1.0
aF1.0
aF0.997
aF0.997
aF0.988
aF0.997
aF0.994
aF0.997
aF0.994
aF0.991
assS'FFT1'
p25
(dp26
g5
(lp27
F0.0
aF0.0
aF0.005
aF0.0
aF0.0
aF0.0
aF0.0
aF0.005
aF0.0
aF0.0
aF0.0
aF0.0
aF0.01
aF0.005
aF0.0
aF0.0
aF0.0
aF0.0
aF0.0
aF0.005
aF0.005
aF0.0
aF0.0
aF0.01
aF0.0
asg7
(lp28
F0.0
aF0.015
aF0.0
aF0.0
aF0.008
aF0.0
aF0.008
aF0.008
aF0.008
aF0.0
aF0.015
aF0.0
aF0.008
aF0.008
aF0.0
aF0.015
aF0.0
aF0.008
aF0.0
aF0.015
aF0.0
aF0.0
aF0.008
aF0.008
aF0.008
asg9
(lp29
F0.0
aF1.0
aF0.0
aF0.0
aF1.0
aF0.0
aF1.0
aF0.5
aF1.0
aF0.0
aF1.0
aF0.0
aF0.333
aF0.5
aF0.0
aF1.0
aF0.0
aF1.0
aF0.0
aF0.667
aF0.0
aF0.0
aF1.0
aF0.333
aF1.0
asg11
(lp30
F0.598
aF0.604
aF0.594
aF0.599
aF0.602
aF0.598
aF0.601
aF0.597
aF0.602
aF0.599
aF0.604
aF0.598
aF0.594
aF0.599
aF0.599
aF0.604
aF0.598
aF0.6
aF0.599
aF0.602
aF0.595
aF0.598
aF0.6
aF0.596
aF0.602
asssS'HASHING'
p31
(dp32
g3
(dp33
g5
(lp34
F0.003
aF0.003
aF0.0
aF0.0
aF0.004
aF0.0
aF0.0
aF0.004
aF0.003
aF0.0
aF0.0
aF0.004
aF0.0
aF0.003
aF0.003
aF0.004
aF0.0
aF0.003
aF0.003
aF0.003
aF0.0
aF0.0
aF0.004
aF0.003
aF0.003
asg7
(lp35
F0.997
aF0.997
aF1.0
aF1.0
aF0.996
aF1.0
aF1.0
aF0.996
aF0.997
aF1.0
aF1.0
aF0.996
aF1.0
aF0.997
aF0.997
aF0.996
aF1.0
aF0.997
aF0.997
aF0.997
aF1.0
aF1.0
aF0.996
aF0.997
aF0.997
asg9
(lp36
F0.996
aF0.996
aF1.0
aF1.0
aF0.997
aF1.0
aF1.0
aF0.997
aF0.996
aF1.0
aF1.0
aF0.997
aF1.0
aF0.996
aF0.996
aF0.997
aF1.0
aF0.996
aF0.996
aF0.996
aF1.0
aF1.0
aF0.997
aF0.996
aF0.996
asg11
(lp37
F0.997
aF0.997
aF1.0
aF1.0
aF0.997
aF1.0
aF1.0
aF0.997
aF0.997
aF1.0
aF1.0
aF0.997
aF1.0
aF0.997
aF0.997
aF0.997
aF1.0
aF0.997
aF0.997
aF0.997
aF1.0
aF1.0
aF0.997
aF0.997
aF0.997
assg13
(dp38
g5
(lp39
F0.0
aF0.0
aF0.0
aF0.0
aF0.004
aF0.0
aF0.0
aF0.004
aF0.0
aF0.0
aF0.0
aF0.004
aF0.0
aF0.0
aF0.0
aF0.004
aF0.0
aF0.0
aF0.0
aF0.0
aF0.0
aF0.0
aF0.004
aF0.0
aF0.0
asg7
(lp40
F1.0
aF1.0
aF1.0
aF1.0
aF0.996
aF1.0
aF1.0
aF0.996
aF1.0
aF1.0
aF1.0
aF0.996
aF1.0
aF1.0
aF1.0
aF0.996
aF1.0
aF1.0
aF1.0
aF1.0
aF1.0
aF1.0
aF0.996
aF1.0
aF1.0
asg9
(lp41
F1.0
aF1.0
aF1.0
aF1.0
aF0.997
aF1.0
aF1.0
aF0.997
aF1.0
aF1.0
aF1.0
aF0.997
aF1.0
aF1.0
aF1.0
aF0.997
aF1.0
aF1.0
aF1.0
aF1.0
aF1.0
aF1.0
aF0.997
aF1.0
aF1.0
asg11
(lp42
F1.0
aF1.0
aF1.0
aF1.0
aF0.997
aF1.0
aF1.0
aF0.997
aF1.0
aF1.0
aF1.0
aF0.997
aF1.0
aF1.0
aF1.0
aF0.997
aF1.0
aF1.0
aF1.0
aF1.0
aF1.0
aF1.0
aF0.997
aF1.0
aF1.0
assg19
(dp43
g5
(lp44
F0.003
aF0.004
aF0.0
aF0.004
aF0.004
aF0.008
aF0.004
aF0.004
aF0.004
aF0.0
aF0.0
aF0.004
aF0.01
aF0.003
aF0.016
aF0.015
aF0.0
aF0.0
aF0.0
aF0.0
aF0.004
aF0.004
aF0.004
aF0.023
aF0.004
asg7
(lp45
F0.997
aF0.996
aF1.0
aF0.996
aF0.996
aF0.992
aF0.996
aF0.996
aF0.996
aF1.0
aF1.0
aF0.996
aF0.99
aF0.997
aF0.984
aF0.985
aF1.0
aF1.0
aF1.0
aF1.0
aF0.996
aF0.996
aF0.996
aF0.977
aF0.996
asg9
(lp46
F0.996
aF0.997
aF1.0
aF0.997
aF0.997
aF0.995
aF0.997
aF0.997
aF0.997
aF1.0
aF1.0
aF0.997
aF0.991
aF0.996
aF0.985
aF0.99
aF1.0
aF1.0
aF1.0
aF1.0
aF0.997
aF0.997
aF0.997
aF0.985
aF0.997
asg11
(lp47
F0.997
aF0.997
aF1.0
aF0.997
aF0.997
aF0.994
aF0.997
aF0.997
aF0.997
aF1.0
aF1.0
aF0.997
aF0.991
aF0.997
aF0.985
aF0.988
aF1.0
aF1.0
aF1.0
aF1.0
aF0.997
aF0.997
aF0.997
aF0.982
aF0.997
assg25
(dp48
g5
(lp49
F0.01
aF0.0
aF0.015
aF0.005
aF0.01
aF0.01
aF0.015
aF0.0
aF0.005
aF0.005
aF0.01
aF0.015
aF0.005
aF0.0
aF0.01
aF0.005
aF0.005
aF0.015
aF0.005
aF0.0
aF0.015
aF0.005
aF0.005
aF0.0
aF0.01
asg7
(lp50
F0.0
aF0.015
aF0.0
aF0.0
aF0.0
aF0.0
aF0.023
aF0.023
aF0.008
aF0.0
aF0.0
aF0.008
aF0.0
aF0.03
aF0.0
aF0.0
aF0.008
aF0.023
aF0.008
aF0.0
aF0.0
aF0.0
aF0.0
aF0.015
aF0.008
asg9
(lp51
F0.0
aF1.0
aF0.0
aF0.0
aF0.0
aF0.0
aF0.5
aF1.0
aF0.5
aF0.0
aF0.0
aF0.25
aF0.0
aF1.0
aF0.0
aF0.0
aF0.5
aF0.5
aF0.5
aF0.0
aF0.0
aF0.0
aF0.0
aF1.0
aF0.333
asg11
(lp52
F0.592
aF0.604
aF0.588
aF0.596
aF0.593
aF0.592
aF0.598
aF0.606
aF0.599
aF0.596
aF0.592
aF0.592
aF0.594
aF0.611
aF0.593
aF0.595
aF0.598
aF0.597
aF0.599
aF0.599
aF0.589
aF0.595
aF0.594
aF0.605
aF0.596
asss.