(dp0
S'TFIDF'
p1
(dp2
S'DT'
p3
(dp4
S'features'
p5
(lp6
sS'false_alarm'
p7
(lp8
F0.452
aF0.387
aF0.419
aF0.492
aF0.377
aF0.371
aF0.403
aF0.403
aF0.393
aF0.41
aF0.339
aF0.516
aF0.419
aF0.459
aF0.459
aF0.435
aF0.403
aF0.355
aF0.41
aF0.393
aF0.355
aF0.419
aF0.387
aF0.508
aF0.328
asS'recall'
p9
(lp10
F0.808
aF0.74
aF0.709
aF0.738
aF0.68
aF0.76
aF0.663
aF0.728
aF0.748
aF0.767
aF0.779
aF0.74
aF0.835
aF0.767
aF0.767
aF0.798
aF0.712
aF0.825
aF0.718
aF0.718
aF0.731
aF0.702
aF0.806
aF0.757
aF0.806
asS'precision'
p11
(lp12
F0.75
aF0.762
aF0.737
aF0.717
aF0.753
aF0.775
aF0.734
aF0.75
aF0.762
aF0.76
aF0.794
aF0.706
aF0.768
aF0.738
aF0.738
aF0.755
aF0.747
aF0.794
aF0.747
aF0.755
aF0.776
aF0.737
aF0.776
aF0.716
aF0.806
asS'times'
p13
(lp14
F0.6941661834716797
aF0.6549079418182373
aF0.6967921257019043
aF0.5834650993347168
aF0.6512093544006348
aF0.782189130783081
aF0.7338941097259521
aF0.5127441883087158
aF0.5997223854064941
aF0.6168551445007324
aF0.5527892112731934
aF0.6226201057434082
aF0.7870199680328369
aF0.7358219623565674
aF0.7458820343017578
aF0.6411259174346924
aF0.6889200210571289
aF0.5761079788208008
aF0.41959214210510254
aF0.77323317527771
aF0.6732339859008789
aF0.5027310848236084
aF0.7694590091705322
aF0.65242600440979
asS'accuracy'
p15
(lp16
F0.711
aF0.693
aF0.661
aF0.652
aF0.659
aF0.711
aF0.639
aF0.679
aF0.695
aF0.701
aF0.735
aF0.645
aF0.739
aF0.683
aF0.683
aF0.711
aF0.669
aF0.758
aF0.671
aF0.677
aF0.699
aF0.657
aF0.733
aF0.659
aF0.756
assS'SVM'
p17
(dp18
g5
(lp19
sg7
(lp20
F0.339
aF0.339
aF0.371
aF0.393
aF0.443
aF0.452
aF0.355
aF0.355
aF0.459
aF0.328
aF0.435
aF0.387
aF0.371
aF0.443
aF0.508
aF0.419
aF0.323
aF0.387
aF0.525
aF0.377
aF0.274
aF0.419
aF0.339
aF0.525
aF0.311
asg9
(lp21
F0.76
aF0.798
aF0.806
aF0.796
aF0.874
aF0.817
aF0.779
aF0.757
aF0.806
aF0.786
aF0.798
aF0.779
aF0.796
aF0.796
aF0.806
aF0.769
aF0.769
aF0.854
aF0.718
aF0.786
aF0.76
aF0.74
aF0.806
aF0.786
aF0.816
asg11
(lp22
F0.79
aF0.798
aF0.783
aF0.774
aF0.769
aF0.752
aF0.786
aF0.78
aF0.748
aF0.802
aF0.755
aF0.771
aF0.781
aF0.752
aF0.728
aF0.755
aF0.8
aF0.786
aF0.698
aF0.779
aF0.823
aF0.748
aF0.798
aF0.717
aF0.816
asg13
(lp23
F5.023118019104004
aF5.063158988952637
aF5.087424039840698
aF5.0203070640563965
aF4.993062257766724
aF4.984889268875122
aF5.101352214813232
aF5.027301073074341
aF5.08669900894165
aF5.012928247451782
aF5.052805185317993
aF5.023085117340088
aF5.143182277679443
aF5.013652086257935
aF5.047306060791016
aF5.041167974472046
aF5.02376389503479
aF5.0795578956604
aF5.086854934692383
aF5.080282926559448
aF4.961990118026733
aF5.0173211097717285
aF5.034471035003662
aF5.136128902435303
asg15
(lp24
F0.723
aF0.747
aF0.739
aF0.726
aF0.756
aF0.717
aF0.729
aF0.715
aF0.707
aF0.744
aF0.711
aF0.717
aF0.733
aF0.707
aF0.689
aF0.699
aF0.735
aF0.764
aF0.628
aF0.726
aF0.747
aF0.681
aF0.752
aF0.671
aF0.768
assS'RF'
p25
(dp26
g5
(lp27
sg7
(lp28
F0.387
aF0.339
aF0.435
aF0.443
aF0.475
aF0.435
aF0.435
aF0.242
aF0.541
aF0.443
aF0.371
aF0.387
aF0.387
aF0.426
aF0.492
aF0.581
aF0.323
aF0.468
aF0.525
aF0.525
aF0.387
aF0.532
aF0.452
aF0.574
aF0.459
asg9
(lp29
F0.779
aF0.817
aF0.874
aF0.854
aF0.903
aF0.894
aF0.779
aF0.796
aF0.835
aF0.816
aF0.827
aF0.894
aF0.874
aF0.825
aF0.816
aF0.837
aF0.856
aF0.922
aF0.854
aF0.913
aF0.827
aF0.817
aF0.864
aF0.767
aF0.874
asg11
(lp30
F0.771
aF0.802
aF0.769
aF0.765
aF0.762
aF0.775
aF0.75
aF0.845
aF0.723
aF0.757
aF0.789
aF0.795
aF0.789
aF0.766
aF0.737
aF0.707
aF0.817
aF0.766
aF0.733
aF0.746
aF0.782
aF0.72
aF0.761
aF0.693
aF0.763
asg13
(lp31
F0.28121304512023926
aF0.2904629707336426
aF0.2831540107727051
aF0.28452420234680176
aF0.29010629653930664
aF0.2856321334838867
aF0.2953331470489502
aF0.2806062698364258
aF0.28720617294311523
aF0.2833540439605713
aF0.27808213233947754
aF0.2870621681213379
aF0.2878570556640625
aF0.2793142795562744
aF0.28996896743774414
aF0.2771420478820801
aF0.2835710048675537
aF0.28117895126342773
aF0.2790060043334961
aF0.285815954208374
aF0.2796509265899658
aF0.27358508110046387
aF0.2762570381164551
aF0.28191113471984863
asg15
(lp32
F0.717
aF0.759
aF0.758
aF0.744
aF0.762
aF0.771
aF0.699
aF0.782
aF0.695
aF0.72
aF0.753
aF0.789
aF0.776
aF0.732
aF0.701
aF0.681
aF0.789
aF0.776
aF0.713
aF0.75
aF0.747
aF0.687
aF0.745
aF0.64
aF0.75
asssS'HASHING'
p33
(dp34
g3
(dp35
g5
(lp36
sg7
(lp37
F0.532
aF0.452
aF0.5
aF0.508
aF0.525
aF0.468
aF0.5
aF0.371
aF0.508
aF0.492
aF0.452
aF0.403
aF0.452
aF0.443
aF0.443
aF0.419
aF0.371
aF0.484
aF0.393
aF0.492
aF0.452
aF0.403
aF0.371
aF0.574
aF0.311
asg9
(lp38
F0.731
aF0.702
aF0.757
aF0.689
aF0.757
aF0.779
aF0.788
aF0.65
aF0.777
aF0.738
aF0.702
aF0.74
aF0.767
aF0.738
aF0.689
aF0.769
aF0.673
aF0.777
aF0.68
aF0.767
aF0.798
aF0.76
aF0.757
aF0.777
aF0.757
asg11
(lp39
F0.697
aF0.723
aF0.716
aF0.696
aF0.709
aF0.736
aF0.726
aF0.744
aF0.721
aF0.717
aF0.723
aF0.755
aF0.738
aF0.738
aF0.724
aF0.755
aF0.753
aF0.727
aF0.745
aF0.725
aF0.748
aF0.76
aF0.772
aF0.696
aF0.804
asg13
(lp40
F0.33184027671813965
aF0.36081504821777344
aF0.3036050796508789
aF0.30843305587768555
aF0.28100085258483887
aF0.3724019527435303
aF0.3414437770843506
aF0.31064677238464355
aF0.3471956253051758
aF0.42373204231262207
aF0.3770439624786377
aF0.3260810375213623
aF0.3514249324798584
aF0.31799983978271484
aF0.26281189918518066
aF0.3013267517089844
aF0.3446829319000244
aF0.2723197937011719
aF0.3330209255218506
aF0.29975223541259766
aF0.2990751266479492
aF0.25268101692199707
aF0.30715489387512207
aF0.32166028022766113
asg15
(lp41
F0.633
aF0.645
aF0.661
aF0.616
aF0.652
aF0.687
aF0.681
aF0.642
aF0.671
aF0.652
aF0.645
aF0.687
aF0.685
aF0.671
aF0.64
aF0.699
aF0.657
aF0.679
aF0.652
aF0.671
aF0.705
aF0.699
aF0.709
aF0.646
aF0.732
assg17
(dp42
g5
(lp43
sg7
(lp44
F0.339
aF0.403
aF0.371
aF0.492
aF0.426
aF0.435
aF0.5
aF0.371
aF0.377
aF0.311
aF0.403
aF0.371
aF0.323
aF0.459
aF0.508
aF0.435
aF0.339
aF0.355
aF0.459
aF0.41
aF0.306
aF0.419
aF0.435
aF0.475
aF0.377
asg9
(lp45
F0.769
aF0.808
aF0.689
aF0.728
aF0.786
aF0.779
aF0.721
aF0.631
aF0.806
aF0.728
aF0.798
aF0.673
aF0.738
aF0.718
aF0.767
aF0.74
aF0.721
aF0.689
aF0.757
aF0.835
aF0.74
aF0.663
aF0.738
aF0.709
aF0.845
asg11
(lp46
F0.792
aF0.771
aF0.755
aF0.714
aF0.757
aF0.75
aF0.708
aF0.739
aF0.783
aF0.798
aF0.769
aF0.753
aF0.792
aF0.725
aF0.718
aF0.74
aF0.781
aF0.763
aF0.736
aF0.775
aF0.802
aF0.726
aF0.738
aF0.716
aF0.791
asg13
(lp47
F0.9909090995788574
aF0.9911899566650391
aF1.0009541511535645
aF0.9952161312103271
aF0.9775197505950928
aF0.9828979969024658
aF0.9772067070007324
aF1.0035827159881592
aF1.0161190032958984
aF0.9859449863433838
aF0.9988059997558594
aF1.1710669994354248
aF1.185074806213379
aF0.9952399730682373
aF0.995018720626831
aF1.1748087406158447
aF0.9960598945617676
aF0.984764814376831
aF0.9947657585144043
aF1.0110061168670654
aF0.9951121807098389
aF1.035797119140625
aF0.991793155670166
aF0.9975550174713135
asg15
(lp48
F0.729
aF0.729
aF0.667
aF0.646
aF0.707
aF0.699
aF0.639
aF0.63
aF0.738
aF0.713
aF0.723
aF0.657
aF0.715
aF0.652
aF0.665
aF0.675
aF0.699
aF0.673
aF0.677
aF0.744
aF0.723
aF0.633
aF0.673
aF0.64
aF0.762
assg25
(dp49
g5
(lp50
sg7
(lp51
F0.387
aF0.339
aF0.306
aF0.41
aF0.459
aF0.387
aF0.403
aF0.371
aF0.426
aF0.459
aF0.452
aF0.435
aF0.419
aF0.475
aF0.508
aF0.484
aF0.403
aF0.419
aF0.443
aF0.393
aF0.339
aF0.468
aF0.355
aF0.41
aF0.344
asg9
(lp52
F0.817
aF0.827
aF0.835
aF0.845
aF0.883
aF0.865
aF0.837
aF0.777
aF0.893
aF0.874
aF0.856
aF0.817
aF0.845
aF0.854
aF0.748
aF0.779
aF0.788
aF0.835
aF0.777
aF0.806
aF0.788
aF0.769
aF0.806
aF0.786
aF0.874
asg11
(lp53
F0.78
aF0.804
aF0.819
aF0.777
aF0.765
aF0.789
aF0.777
aF0.777
aF0.78
aF0.763
aF0.761
aF0.759
aF0.77
aF0.752
aF0.713
aF0.73
aF0.766
aF0.768
aF0.748
aF0.776
aF0.796
aF0.734
aF0.79
aF0.764
aF0.811
asg13
(lp54
F0.21819829940795898
aF0.22183799743652344
aF0.2936391830444336
aF0.21351909637451172
aF0.21382975578308105
aF0.2163999080657959
aF0.21091485023498535
aF0.21002674102783203
aF0.21293401718139648
aF0.21750187873840332
aF0.206679105758667
aF0.20994091033935547
aF0.21906495094299316
aF0.21051383018493652
aF0.21301579475402832
aF0.2113966941833496
aF0.21123576164245605
aF0.20975780487060547
aF0.21196484565734863
aF0.22020506858825684
aF0.2149980068206787
aF0.2153182029724121
aF0.2144908905029297
aF0.21832919120788574
asg15
(lp55
F0.741
aF0.765
aF0.782
aF0.75
aF0.756
aF0.771
aF0.747
aF0.721
aF0.774
aF0.75
aF0.741
aF0.723
aF0.745
aF0.732
aF0.652
aF0.681
aF0.717
aF0.739
aF0.695
aF0.732
aF0.741
aF0.681
aF0.745
aF0.713
aF0.793
asss.