(dp0
S'TFIDF'
p1
(dp2
S'DT'
p3
(dp4
S'features'
p5
(lp6
sS'false_alarm'
p7
(lp8
F0.0
aF0.0
aF0.0
aF0.0
aF0.0
aF0.0
aF0.0
aF0.0
aF0.0
aF0.0
aF0.0
aF0.0
aF0.0
aF0.0
aF0.0
aF0.0
aF0.0
aF0.0
aF0.0
aF0.0
aF0.0
aF0.0
aF0.0
aF0.0
aF0.0
asS'recall'
p9
(lp10
F1.0
aF1.0
aF1.0
aF1.0
aF1.0
aF1.0
aF1.0
aF1.0
aF1.0
aF1.0
aF1.0
aF1.0
aF1.0
aF1.0
aF1.0
aF1.0
aF1.0
aF1.0
aF1.0
aF1.0
aF1.0
aF1.0
aF1.0
aF1.0
aF1.0
asS'precision'
p11
(lp12
F1.0
aF1.0
aF1.0
aF1.0
aF1.0
aF1.0
aF1.0
aF1.0
aF1.0
aF1.0
aF1.0
aF1.0
aF1.0
aF1.0
aF1.0
aF1.0
aF1.0
aF1.0
aF1.0
aF1.0
aF1.0
aF1.0
aF1.0
aF1.0
aF1.0
asS'times'
p13
(lp14
F0.27563905715942383
aF0.27507805824279785
aF0.2756540775299072
aF0.2748289108276367
aF0.2692890167236328
aF0.2692990303039551
aF0.2688467502593994
aF0.268770694732666
aF0.26924777030944824
aF0.2693948745727539
aF0.26825404167175293
aF0.26839113235473633
aF0.26875805854797363
aF0.2688460350036621
aF0.26737093925476074
aF0.26734185218811035
aF0.26763486862182617
aF0.2677137851715088
aF0.26717376708984375
aF0.2700808048248291
aF0.2697567939758301
aF0.2693347930908203
aF0.2700028419494629
aF0.26914167404174805
asS'accuracy'
p15
(lp16
F1.0
aF1.0
aF1.0
aF1.0
aF1.0
aF1.0
aF1.0
aF1.0
aF1.0
aF1.0
aF1.0
aF1.0
aF1.0
aF1.0
aF1.0
aF1.0
aF1.0
aF1.0
aF1.0
aF1.0
aF1.0
aF1.0
aF1.0
aF1.0
aF1.0
assS'SVM'
p17
(dp18
g5
(lp19
sg7
(lp20
F0.0
aF0.0
aF0.0
aF0.0
aF0.0
aF0.0
aF0.0
aF0.0
aF0.0
aF0.0
aF0.0
aF0.0
aF0.0
aF0.0
aF0.0
aF0.0
aF0.0
aF0.0
aF0.0
aF0.0
aF0.0
aF0.0
aF0.0
aF0.0
aF0.0
asg9
(lp21
F1.0
aF1.0
aF1.0
aF1.0
aF1.0
aF1.0
aF1.0
aF1.0
aF1.0
aF1.0
aF1.0
aF1.0
aF1.0
aF1.0
aF1.0
aF1.0
aF1.0
aF1.0
aF1.0
aF1.0
aF1.0
aF1.0
aF1.0
aF0.992
aF1.0
asg11
(lp22
F1.0
aF1.0
aF1.0
aF1.0
aF1.0
aF1.0
aF1.0
aF1.0
aF1.0
aF1.0
aF1.0
aF1.0
aF1.0
aF1.0
aF1.0
aF1.0
aF1.0
aF1.0
aF1.0
aF1.0
aF1.0
aF1.0
aF1.0
aF1.0
aF1.0
asg13
(lp23
F7.6759021282196045
aF7.666095972061157
aF7.7690160274505615
aF7.6612489223480225
aF7.640578985214233
aF7.69788384437561
aF7.508650779724121
aF7.6589577198028564
aF7.605567693710327
aF7.5493199825286865
aF7.576208114624023
aF8.05088210105896
aF7.83022403717041
aF7.8056371212005615
aF7.388822793960571
aF7.651009798049927
aF7.81850790977478
aF7.9438958168029785
aF7.732994794845581
aF7.409801006317139
aF7.672104835510254
aF7.822028875350952
aF7.435776948928833
aF7.542934894561768
asg15
(lp24
F1.0
aF1.0
aF1.0
aF1.0
aF1.0
aF1.0
aF1.0
aF1.0
aF1.0
aF1.0
aF1.0
aF1.0
aF1.0
aF1.0
aF1.0
aF1.0
aF1.0
aF1.0
aF1.0
aF1.0
aF1.0
aF1.0
aF1.0
aF0.997
aF1.0
assS'RF'
p25
(dp26
g5
(lp27
sg7
(lp28
F0.0
aF0.005
aF0.0
aF0.0
aF0.0
aF0.0
aF0.0
aF0.0
aF0.0
aF0.005
aF0.0
aF0.0
aF0.0
aF0.01
aF0.0
aF0.0
aF0.0
aF0.0
aF0.0
aF0.015
aF0.0
aF0.0
aF0.0
aF0.0
aF0.005
asg9
(lp29
F1.0
aF1.0
aF1.0
aF0.985
aF1.0
aF1.0
aF0.992
aF0.97
aF0.992
aF0.985
aF0.992
aF1.0
aF0.985
aF0.992
aF1.0
aF1.0
aF1.0
aF0.992
aF0.992
aF0.992
aF0.992
aF0.985
aF0.992
aF0.985
aF0.985
asg11
(lp30
F1.0
aF0.993
aF1.0
aF1.0
aF1.0
aF1.0
aF1.0
aF1.0
aF1.0
aF0.992
aF1.0
aF1.0
aF1.0
aF0.985
aF1.0
aF1.0
aF1.0
aF1.0
aF1.0
aF0.978
aF1.0
aF1.0
aF1.0
aF1.0
aF0.992
asg13
(lp31
F0.3539130687713623
aF0.34592604637145996
aF0.3607339859008789
aF0.35827088356018066
aF0.34030985832214355
aF0.35806989669799805
aF0.3570268154144287
aF0.3508620262145996
aF0.3701958656311035
aF0.3725929260253906
aF0.36422085762023926
aF0.3656630516052246
aF0.377032995223999
aF0.36643004417419434
aF0.3766019344329834
aF0.3573329448699951
aF0.3569808006286621
aF0.3522458076477051
aF0.3703138828277588
aF0.3800790309906006
aF0.3688998222351074
aF0.3596937656402588
aF0.3649716377258301
aF0.36807799339294434
asg15
(lp32
F1.0
aF0.997
aF1.0
aF0.994
aF1.0
aF1.0
aF0.997
aF0.988
aF0.997
aF0.991
aF0.997
aF1.0
aF0.994
aF0.991
aF1.0
aF1.0
aF1.0
aF0.997
aF0.997
aF0.988
aF0.997
aF0.994
aF0.997
aF0.994
aF0.991
asssS'HASHING'
p33
(dp34
g3
(dp35
g5
(lp36
sg7
(lp37
F0.005
aF0.005
aF0.0
aF0.0
aF0.0
aF0.0
aF0.0
aF0.0
aF0.005
aF0.0
aF0.0
aF0.0
aF0.0
aF0.005
aF0.005
aF0.0
aF0.0
aF0.005
aF0.005
aF0.005
aF0.0
aF0.0
aF0.0
aF0.005
aF0.005
asg9
(lp38
F1.0
aF1.0
aF1.0
aF1.0
aF0.992
aF1.0
aF1.0
aF0.992
aF1.0
aF1.0
aF1.0
aF0.992
aF1.0
aF1.0
aF1.0
aF0.992
aF1.0
aF1.0
aF1.0
aF1.0
aF1.0
aF1.0
aF0.992
aF1.0
aF1.0
asg11
(lp39
F0.993
aF0.993
aF1.0
aF1.0
aF1.0
aF1.0
aF1.0
aF1.0
aF0.992
aF1.0
aF1.0
aF1.0
aF1.0
aF0.992
aF0.992
aF1.0
aF1.0
aF0.993
aF0.992
aF0.992
aF1.0
aF1.0
aF1.0
aF0.992
aF0.992
asg13
(lp40
F0.16863107681274414
aF0.16876220703125
aF0.1693871021270752
aF0.15605592727661133
aF0.16886115074157715
aF0.16837596893310547
aF0.15601015090942383
aF0.1681501865386963
aF0.1691279411315918
aF0.16849303245544434
aF0.15546894073486328
aF0.16829991340637207
aF0.16820502281188965
aF0.16778898239135742
aF0.15999817848205566
aF0.17206406593322754
aF0.1728520393371582
aF0.17203903198242188
aF0.17284107208251953
aF0.17002320289611816
aF0.17024922370910645
aF0.15739202499389648
aF0.17027711868286133
aF0.16983532905578613
asg15
(lp41
F0.997
aF0.997
aF1.0
aF1.0
aF0.997
aF1.0
aF1.0
aF0.997
aF0.997
aF1.0
aF1.0
aF0.997
aF1.0
aF0.997
aF0.997
aF0.997
aF1.0
aF0.997
aF0.997
aF0.997
aF1.0
aF1.0
aF0.997
aF0.997
aF0.997
assg17
(dp42
g5
(lp43
sg7
(lp44
F0.01
aF0.0
aF0.0
aF0.0
aF0.0
aF0.0
aF0.0
aF0.0
aF0.0
aF0.0
aF0.0
aF0.005
aF0.0
aF0.0
aF0.0
aF0.0
aF0.0
aF0.0
aF0.005
aF0.0
aF0.005
aF0.0
aF0.0
aF0.0
aF0.0
asg9
(lp45
F1.0
aF1.0
aF1.0
aF1.0
aF0.992
aF1.0
aF1.0
aF0.992
aF1.0
aF1.0
aF1.0
aF0.992
aF1.0
aF1.0
aF1.0
aF0.992
aF1.0
aF1.0
aF1.0
aF1.0
aF1.0
aF1.0
aF0.992
aF1.0
aF1.0
asg11
(lp46
F0.985
aF1.0
aF1.0
aF1.0
aF1.0
aF1.0
aF1.0
aF1.0
aF1.0
aF1.0
aF1.0
aF0.992
aF1.0
aF1.0
aF1.0
aF1.0
aF1.0
aF1.0
aF0.992
aF1.0
aF0.993
aF1.0
aF1.0
aF1.0
aF1.0
asg13
(lp47
F1.5807421207427979
aF1.6958911418914795
aF1.6830682754516602
aF1.6809380054473877
aF1.715569257736206
aF1.7444379329681396
aF1.714468002319336
aF1.5752880573272705
aF1.7157282829284668
aF1.64109206199646
aF1.6039631366729736
aF1.770829200744629
aF1.643671989440918
aF1.8054661750793457
aF1.772047996520996
aF1.7703430652618408
aF1.6876142024993896
aF1.5322160720825195
aF1.6949410438537598
aF1.686542272567749
aF1.770557165145874
aF1.7463710308074951
aF1.5579593181610107
aF1.7422113418579102
asg15
(lp48
F0.994
aF1.0
aF1.0
aF1.0
aF0.997
aF1.0
aF1.0
aF0.997
aF1.0
aF1.0
aF1.0
aF0.994
aF1.0
aF1.0
aF1.0
aF0.997
aF1.0
aF1.0
aF0.997
aF1.0
aF0.997
aF1.0
aF0.997
aF1.0
aF1.0
assg25
(dp49
g5
(lp50
sg7
(lp51
F0.005
aF0.0
aF0.0
aF0.0
aF0.0
aF0.0
aF0.0
aF0.0
aF0.0
aF0.0
aF0.0
aF0.0
aF0.005
aF0.005
aF0.01
aF0.0
aF0.0
aF0.0
aF0.0
aF0.0
aF0.0
aF0.0
aF0.0
aF0.0
aF0.0
asg9
(lp52
F1.0
aF0.992
aF1.0
aF0.992
aF0.992
aF0.985
aF0.992
aF0.992
aF0.992
aF1.0
aF1.0
aF0.992
aF0.985
aF1.0
aF0.977
aF0.97
aF1.0
aF1.0
aF1.0
aF1.0
aF0.992
aF0.992
aF0.992
aF0.955
aF0.992
asg11
(lp53
F0.993
aF1.0
aF1.0
aF1.0
aF1.0
aF1.0
aF1.0
aF1.0
aF1.0
aF1.0
aF1.0
aF1.0
aF0.992
aF0.992
aF0.985
aF1.0
aF1.0
aF1.0
aF1.0
aF1.0
aF1.0
aF1.0
aF1.0
aF1.0
aF1.0
asg13
(lp54
F0.2316141128540039
aF0.22983193397521973
aF0.30869007110595703
aF0.2292461395263672
aF0.24404215812683105
aF0.22833704948425293
aF0.2291550636291504
aF0.23049402236938477
aF0.2270951271057129
aF0.22475004196166992
aF0.2347431182861328
aF0.23273897171020508
aF0.23621797561645508
aF0.24297499656677246
aF0.24006104469299316
aF0.2386610507965088
aF0.22392511367797852
aF0.23329520225524902
aF0.23998308181762695
aF0.23693132400512695
aF0.2279951572418213
aF0.22848916053771973
aF0.23044109344482422
aF0.22382831573486328
asg15
(lp55
F0.997
aF0.997
aF1.0
aF0.997
aF0.997
aF0.994
aF0.997
aF0.997
aF0.997
aF1.0
aF1.0
aF0.997
aF0.991
aF0.997
aF0.985
aF0.988
aF1.0
aF1.0
aF1.0
aF1.0
aF0.997
aF0.997
aF0.997
aF0.982
aF0.997
asss.