(dp0
S'TFIDF'
p1
(dp2
S'DT'
p3
(dp4
S'false_alarm'
p5
(lp6
F0.167
aF0.181
aF0.212
aF0.348
aF0.182
aF0.015
aF0.015
aF0.348
aF0.197
aF0.348
aF0.377
aF0.348
aF0.0
aF0.182
aF0.182
aF0.181
aF0.167
aF0.348
aF0.167
aF0.03
aF0.559
aF0.167
aF0.015
aF0.333
aF0.197
asS'recall'
p7
(lp8
F0.833
aF0.819
aF0.788
aF0.652
aF0.818
aF0.985
aF0.985
aF0.652
aF0.803
aF0.652
aF0.623
aF0.652
aF1.0
aF0.818
aF0.818
aF0.819
aF0.833
aF0.652
aF0.833
aF0.97
aF0.441
aF0.833
aF0.985
aF0.667
aF0.803
asS'precision'
p9
(lp10
F0.986
aF0.819
aF0.684
aF0.721
aF0.818
aF0.875
aF0.875
aF0.721
aF0.734
aF0.721
aF0.595
aF0.721
aF1.0
aF0.818
aF0.818
aF0.819
aF0.986
aF0.721
aF0.985
aF0.8
aF0.455
aF0.986
aF0.875
aF0.971
aF0.734
asS'accuracy'
p11
(lp12
F0.973
aF0.946
aF0.889
aF0.917
aF0.944
aF0.973
aF0.973
aF0.917
aF0.917
aF0.917
aF0.865
aF0.919
aF1.0
aF0.944
aF0.944
aF0.946
aF0.973
aF0.917
aF0.972
aF0.944
aF0.811
aF0.973
aF0.972
aF0.944
aF0.917
assS'SVM'
p13
(dp14
g5
(lp15
F0.167
aF0.181
aF0.333
aF0.0
aF0.167
aF0.0
aF0.0
aF0.333
aF0.167
aF0.348
aF0.348
aF0.167
aF0.0
aF0.167
aF0.167
aF0.333
aF0.167
aF0.167
aF0.167
aF0.015
aF0.0
aF0.333
aF0.0
aF0.348
aF0.167
asg7
(lp16
F0.833
aF0.819
aF0.667
aF1.0
aF0.833
aF1.0
aF1.0
aF0.667
aF0.833
aF0.652
aF0.652
aF0.833
aF1.0
aF0.833
aF0.833
aF0.667
aF0.833
aF0.833
aF0.833
aF0.985
aF1.0
aF0.667
aF1.0
aF0.652
aF0.833
asg9
(lp17
F0.986
aF0.819
aF0.971
aF1.0
aF0.985
aF1.0
aF1.0
aF0.971
aF0.985
aF0.721
aF0.721
aF0.986
aF1.0
aF0.985
aF0.985
aF0.972
aF0.986
aF0.985
aF0.985
aF0.875
aF1.0
aF0.972
aF1.0
aF0.721
aF0.985
asg11
(lp18
F0.973
aF0.946
aF0.944
aF1.0
aF0.972
aF1.0
aF1.0
aF0.944
aF0.972
aF0.917
aF0.919
aF0.973
aF1.0
aF0.972
aF0.972
aF0.946
aF0.973
aF0.972
aF0.972
aF0.972
aF1.0
aF0.946
aF1.0
aF0.917
aF0.972
assS'RF'
p19
(dp20
g5
(lp21
F0.211
aF0.167
aF0.364
aF0.167
aF0.167
aF0.0
aF0.0
aF0.348
aF0.167
aF0.348
aF0.333
aF0.333
aF0.015
aF0.182
aF0.167
aF0.333
aF0.181
aF0.333
aF0.167
aF0.0
aF0.167
aF0.333
aF0.0
aF0.348
aF0.167
asg7
(lp22
F0.789
aF0.833
aF0.636
aF0.833
aF0.833
aF1.0
aF1.0
aF0.652
aF0.833
aF0.652
aF0.667
aF0.667
aF0.985
aF0.818
aF0.833
aF0.667
aF0.819
aF0.667
aF0.833
aF1.0
aF0.833
aF0.667
aF1.0
aF0.652
aF0.833
asg9
(lp23
F0.684
aF0.986
aF0.636
aF0.985
aF0.985
aF1.0
aF1.0
aF0.721
aF0.985
aF0.721
aF0.972
aF0.972
aF0.875
aF0.818
aF0.985
aF0.972
aF0.819
aF0.971
aF0.985
aF1.0
aF0.986
aF0.972
aF1.0
aF0.721
aF0.985
asg11
(lp24
F0.892
aF0.973
aF0.889
aF0.972
aF0.972
aF1.0
aF1.0
aF0.917
aF0.972
aF0.917
aF0.946
aF0.946
aF0.972
aF0.944
aF0.972
aF0.946
aF0.946
aF0.944
aF0.972
aF1.0
aF0.973
aF0.946
aF1.0
aF0.917
aF0.972
assS'FFT1'
p25
(dp26
g5
(lp27
F0.0
aF0.0
aF1.0
aF0.0
aF0.0
aF0.0
aF0.0
aF1.0
aF0.0
aF0.0
aF1.0
aF0.0
aF0.0
aF0.0
aF0.0
aF1.0
aF0.0
aF0.0
aF0.0
aF0.0
aF0.0
aF1.0
aF0.0
aF0.0
aF0.0
asg7
(lp28
F0.765
aF0.029
aF1.0
aF0.03
aF0.061
aF0.059
aF0.0
aF1.0
aF0.061
aF0.818
aF1.0
aF0.029
aF0.061
aF0.03
aF0.97
aF1.0
aF0.088
aF0.091
aF0.0
aF0.091
aF0.029
aF1.0
aF0.758
aF0.091
aF0.0
asg9
(lp29
F1.0
aF1.0
aF0.917
aF1.0
aF1.0
aF1.0
aF0.0
aF0.917
aF1.0
aF1.0
aF0.919
aF1.0
aF1.0
aF1.0
aF1.0
aF0.919
aF1.0
aF1.0
aF0.0
aF1.0
aF1.0
aF0.919
aF1.0
aF1.0
aF0.0
asg11
(lp30
F0.784
aF0.108
aF0.917
aF0.111
aF0.139
aF0.135
aF0.081
aF0.917
aF0.139
aF0.833
aF0.919
aF0.108
aF0.139
aF0.111
aF0.972
aF0.919
aF0.162
aF0.167
aF0.083
aF0.167
aF0.108
aF0.919
aF0.778
aF0.167
aF0.083
asssS'HASHING'
p31
(dp32
g3
(dp33
g5
(lp34
F0.196
aF0.196
aF0.212
aF0.197
aF0.182
aF0.015
aF0.029
aF0.333
aF0.182
aF0.348
aF0.363
aF0.333
aF0.015
aF0.182
aF0.03
aF0.363
aF0.167
aF0.348
aF0.364
aF0.03
aF0.0
aF0.348
aF0.015
aF0.333
aF0.227
asg7
(lp35
F0.804
aF0.804
aF0.788
aF0.803
aF0.818
aF0.985
aF0.971
aF0.667
aF0.818
aF0.652
aF0.637
aF0.667
aF0.985
aF0.818
aF0.97
aF0.637
aF0.833
aF0.652
aF0.636
aF0.97
aF1.0
aF0.652
aF0.985
aF0.667
aF0.773
asg9
(lp36
F0.735
aF0.735
aF0.684
aF0.734
aF0.818
aF0.875
aF0.8
aF0.971
aF0.818
aF0.721
aF0.637
aF0.972
aF0.875
aF0.818
aF0.8
aF0.637
aF0.986
aF0.721
aF0.636
aF0.8
aF1.0
aF0.721
aF0.875
aF0.971
aF0.65
asg11
(lp37
F0.919
aF0.919
aF0.889
aF0.917
aF0.944
aF0.973
aF0.946
aF0.944
aF0.944
aF0.917
aF0.892
aF0.946
aF0.972
aF0.944
aF0.944
aF0.892
aF0.973
aF0.917
aF0.889
aF0.944
aF1.0
aF0.919
aF0.972
aF0.944
aF0.861
assg13
(dp38
g5
(lp39
F0.167
aF0.181
aF0.348
aF0.015
aF0.167
aF0.015
aF0.0
aF0.333
aF0.167
aF0.348
aF0.348
aF0.167
aF0.015
aF0.167
aF0.167
aF0.348
aF0.167
aF0.167
aF0.167
aF0.015
aF0.0
aF0.333
aF0.0
aF0.364
aF0.182
asg7
(lp40
F0.833
aF0.819
aF0.652
aF0.985
aF0.833
aF0.985
aF1.0
aF0.667
aF0.833
aF0.652
aF0.652
aF0.833
aF0.985
aF0.833
aF0.833
aF0.652
aF0.833
aF0.833
aF0.833
aF0.985
aF1.0
aF0.667
aF1.0
aF0.636
aF0.818
asg9
(lp41
F0.986
aF0.819
aF0.721
aF0.875
aF0.985
aF0.875
aF1.0
aF0.971
aF0.985
aF0.721
aF0.721
aF0.986
aF0.875
aF0.985
aF0.985
aF0.721
aF0.986
aF0.985
aF0.985
aF0.875
aF1.0
aF0.972
aF1.0
aF0.636
aF0.818
asg11
(lp42
F0.973
aF0.946
aF0.917
aF0.972
aF0.972
aF0.973
aF1.0
aF0.944
aF0.972
aF0.917
aF0.919
aF0.973
aF0.972
aF0.972
aF0.972
aF0.919
aF0.973
aF0.972
aF0.972
aF0.972
aF1.0
aF0.946
aF1.0
aF0.889
aF0.944
assg19
(dp43
g5
(lp44
F0.167
aF0.181
aF0.333
aF0.167
aF0.167
aF0.0
aF0.0
aF0.333
aF0.5
aF0.333
aF0.167
aF0.333
aF0.0
aF0.167
aF0.333
aF0.333
aF0.167
aF0.333
aF0.333
aF0.015
aF0.167
aF0.333
aF0.0
aF0.333
aF0.167
asg7
(lp45
F0.833
aF0.819
aF0.667
aF0.833
aF0.833
aF1.0
aF1.0
aF0.667
aF0.5
aF0.667
aF0.833
aF0.667
aF1.0
aF0.833
aF0.667
aF0.667
aF0.833
aF0.667
aF0.667
aF0.985
aF0.833
aF0.667
aF1.0
aF0.667
aF0.833
asg9
(lp46
F0.986
aF0.819
aF0.971
aF0.985
aF0.985
aF1.0
aF1.0
aF0.971
aF0.458
aF0.971
aF0.986
aF0.972
aF1.0
aF0.985
aF0.971
aF0.972
aF0.986
aF0.971
aF0.971
aF0.875
aF0.986
aF0.972
aF1.0
aF0.971
aF0.985
asg11
(lp47
F0.973
aF0.946
aF0.944
aF0.972
aF0.972
aF1.0
aF1.0
aF0.944
aF0.917
aF0.944
aF0.973
aF0.946
aF1.0
aF0.972
aF0.944
aF0.946
aF0.973
aF0.944
aF0.944
aF0.972
aF0.973
aF0.946
aF1.0
aF0.944
aF0.972
assg25
(dp48
g5
(lp49
F1.0
aF1.0
aF1.0
aF1.0
aF1.0
aF1.0
aF1.0
aF1.0
aF1.0
aF1.0
aF1.0
aF1.0
aF1.0
aF1.0
aF1.0
aF1.0
aF1.0
aF1.0
aF1.0
aF1.0
aF1.0
aF1.0
aF1.0
aF1.0
aF1.0
asg7
(lp50
F0.971
aF1.0
aF1.0
aF1.0
aF1.0
aF1.0
aF1.0
aF0.97
aF1.0
aF1.0
aF1.0
aF0.971
aF1.0
aF1.0
aF1.0
aF1.0
aF1.0
aF1.0
aF1.0
aF1.0
aF1.0
aF1.0
aF1.0
aF1.0
aF0.97
asg9
(lp51
F0.917
aF0.919
aF0.917
aF0.917
aF0.917
aF0.919
aF0.919
aF0.914
aF0.917
aF0.917
aF0.919
aF0.917
aF0.917
aF0.917
aF0.917
aF0.919
aF0.919
aF0.917
aF0.917
aF0.917
aF0.919
aF0.919
aF0.917
aF0.917
aF0.914
asg11
(lp52
F0.892
aF0.919
aF0.917
aF0.917
aF0.917
aF0.919
aF0.919
aF0.889
aF0.917
aF0.917
aF0.919
aF0.892
aF0.917
aF0.917
aF0.917
aF0.919
aF0.919
aF0.917
aF0.917
aF0.917
aF0.919
aF0.919
aF0.917
aF0.917
aF0.889
asss.