(dp0
S'HASHING'
p1
(dp2
S'DT'
p3
(dp4
S'false_alarm'
p5
(lp6
F0.303
aF0.349
asS'recall'
p7
(lp8
F0.697
aF0.651
asS'precision'
p9
(lp10
F0.714
aF0.646
asS'accuracy'
p11
(lp12
F0.727
aF0.66
assS'SVM'
p13
(dp14
g5
(lp15
F0.217
aF0.249
asg7
(lp16
F0.783
aF0.751
asg9
(lp17
F0.791
aF0.743
asg11
(lp18
F0.799
aF0.753
assS'RF'
p19
(dp20
g5
(lp21
F0.259
aF0.313
asg7
(lp22
F0.741
aF0.687
asg9
(lp23
F0.765
aF0.704
asg11
(lp24
F0.77
aF0.718
assS'FFT1'
p25
(dp26
g5
(lp27
F0.01
aF0.0
asg7
(lp28
F0.021
aF0.0
asg9
(lp29
F0.571
aF0.0
asg11
(lp30
F0.613
aF0.612
asss.