(dp0
S'TFIDF'
p1
(dp2
S'DT'
p3
(dp4
S'features'
p5
(lp6
sS'false_alarm'
p7
(lp8
F0.103
aF0.103
aF0.0
aF0.143
aF0.179
aF0.138
aF0.172
aF0.25
aF0.071
aF0.179
aF0.069
aF0.276
aF0.179
aF0.036
aF0.143
aF0.103
aF0.069
aF0.214
aF0.143
aF0.107
aF0.069
aF0.034
aF0.25
aF0.143
aF0.071
asS'recall'
p9
(lp10
F0.919
aF0.889
aF0.917
aF0.972
aF0.889
aF1.0
aF0.917
aF0.861
aF0.889
aF0.917
aF0.919
aF0.889
aF0.833
aF0.944
aF0.972
aF0.811
aF0.861
aF0.861
aF0.889
aF1.0
aF0.784
aF0.917
aF0.944
aF0.889
aF0.889
asS'precision'
p11
(lp12
F0.919
aF0.914
aF1.0
aF0.897
aF0.865
aF0.902
aF0.868
aF0.816
aF0.941
aF0.868
aF0.944
aF0.8
aF0.857
aF0.971
aF0.897
aF0.909
aF0.939
aF0.838
aF0.889
aF0.923
aF0.935
aF0.971
aF0.829
aF0.889
aF0.941
asS'times'
p13
(lp14
F0.05876302719116211
aF0.05719399452209473
aF0.05687904357910156
aF0.0542140007019043
aF0.05133509635925293
aF0.05970501899719238
aF0.05667233467102051
aF0.047414302825927734
aF0.05625200271606445
aF0.04922890663146973
aF0.055068016052246094
aF0.05906510353088379
aF0.047718048095703125
aF0.05462002754211426
aF0.04760098457336426
aF0.054535865783691406
aF0.05295395851135254
aF0.05806684494018555
aF0.04881000518798828
aF0.06223893165588379
aF0.048352956771850586
aF0.05918407440185547
aF0.05664992332458496
aF0.057212114334106445
asS'accuracy'
p15
(lp16
F0.909
aF0.892
aF0.953
aF0.922
aF0.859
aF0.939
aF0.877
aF0.813
aF0.906
aF0.875
aF0.924
aF0.815
aF0.828
aF0.953
aF0.922
aF0.848
aF0.892
aF0.828
aF0.875
aF0.953
aF0.848
aF0.938
aF0.859
aF0.875
aF0.906
assS'SVM'
p17
(dp18
g5
(lp19
sg7
(lp20
F0.0
aF0.069
aF0.036
aF0.107
aF0.071
aF0.172
aF0.172
aF0.036
aF0.107
aF0.071
aF0.103
aF0.172
aF0.036
aF0.036
aF0.143
aF0.103
aF0.069
aF0.107
aF0.071
aF0.107
aF0.069
aF0.0
aF0.179
aF0.143
aF0.036
asg9
(lp21
F0.973
aF0.917
aF1.0
aF0.917
aF0.917
aF1.0
aF1.0
aF0.944
aF0.917
aF0.833
aF0.919
aF0.972
aF0.889
aF1.0
aF0.972
aF0.892
aF0.944
aF0.889
aF0.944
aF1.0
aF0.946
aF0.889
aF1.0
aF0.944
aF0.833
asg11
(lp22
F1.0
aF0.943
aF0.973
aF0.917
aF0.943
aF0.881
aF0.878
aF0.971
aF0.917
aF0.938
aF0.919
aF0.875
aF0.97
aF0.973
aF0.897
aF0.917
aF0.944
aF0.914
aF0.944
aF0.923
aF0.946
aF1.0
aF0.878
aF0.895
aF0.968
asg13
(lp23
F0.1473388671875
aF0.1533498764038086
aF0.11924910545349121
aF0.11774301528930664
aF0.11671829223632812
aF0.1461350917816162
aF0.14796710014343262
aF0.11472702026367188
aF0.14420628547668457
aF0.14666199684143066
aF0.1465590000152588
aF0.147413969039917
aF0.17295217514038086
aF0.11747217178344727
aF0.19689702987670898
aF0.14851593971252441
aF0.11059379577636719
aF0.1481008529663086
aF0.1174161434173584
aF0.14771318435668945
aF0.19336414337158203
aF0.1173100471496582
aF0.1495358943939209
aF0.11584782600402832
asg15
(lp24
F0.985
aF0.923
aF0.984
aF0.906
aF0.922
aF0.924
aF0.923
aF0.953
aF0.906
aF0.875
aF0.909
aF0.908
aF0.922
aF0.984
aF0.922
aF0.894
aF0.938
aF0.891
aF0.938
aF0.953
aF0.939
aF0.938
aF0.922
aF0.906
aF0.891
assS'RF'
p25
(dp26
g5
(lp27
sg7
(lp28
F0.069
aF0.069
aF0.0
aF0.071
aF0.071
aF0.138
aF0.103
aF0.107
aF0.036
aF0.071
aF0.103
aF0.276
aF0.036
aF0.071
aF0.071
aF0.138
aF0.069
aF0.179
aF0.071
aF0.107
aF0.0
aF0.0
aF0.107
aF0.107
aF0.0
asg9
(lp29
F0.946
aF0.889
aF0.944
aF0.889
aF0.917
aF1.0
aF0.972
aF0.944
aF0.917
aF0.889
aF0.919
aF0.917
aF0.889
aF1.0
aF0.944
aF0.865
aF0.972
aF0.889
aF0.972
aF1.0
aF0.919
aF0.917
aF1.0
aF0.944
aF0.917
asg11
(lp30
F0.946
aF0.941
aF1.0
aF0.941
aF0.943
aF0.902
aF0.921
aF0.919
aF0.971
aF0.941
aF0.919
aF0.805
aF0.97
aF0.947
aF0.944
aF0.889
aF0.946
aF0.865
aF0.946
aF0.923
aF1.0
aF1.0
aF0.923
aF0.919
aF1.0
asg13
(lp31
F0.08948898315429688
aF0.09051895141601562
aF0.09131002426147461
aF0.0901498794555664
aF0.08740520477294922
aF0.0879971981048584
aF0.08903217315673828
aF0.08861517906188965
aF0.08889102935791016
aF0.08782005310058594
aF0.08913207054138184
aF0.08851814270019531
aF0.08849191665649414
aF0.09170794486999512
aF0.08776688575744629
aF0.08878707885742188
aF0.08884382247924805
aF0.08858394622802734
aF0.08961606025695801
aF0.08961606025695801
aF0.14790606498718262
aF0.08876895904541016
aF0.0892338752746582
aF0.08955001831054688
asg15
(lp32
F0.939
aF0.908
aF0.969
aF0.906
aF0.922
aF0.939
aF0.938
aF0.922
aF0.938
aF0.906
aF0.909
aF0.831
aF0.922
aF0.969
aF0.938
aF0.864
aF0.954
aF0.859
aF0.953
aF0.953
aF0.955
aF0.954
aF0.953
aF0.922
aF0.953
asssS'HASHING'
p33
(dp34
g3
(dp35
g5
(lp36
sg7
(lp37
F0.172
aF0.172
aF0.107
aF0.071
aF0.107
aF0.172
aF0.207
aF0.25
aF0.071
aF0.143
aF0.069
aF0.31
aF0.107
aF0.036
aF0.107
aF0.103
aF0.069
aF0.214
aF0.143
aF0.036
aF0.172
aF0.034
aF0.286
aF0.107
aF0.179
asg9
(lp38
F0.892
aF0.889
aF0.944
aF0.917
aF0.889
aF0.946
aF0.861
aF0.944
aF0.806
aF0.833
aF0.865
aF0.944
aF0.861
aF0.917
aF0.944
aF0.811
aF0.944
aF0.889
aF0.944
aF0.972
aF0.892
aF0.889
aF0.972
aF0.889
aF0.861
asg11
(lp39
F0.868
aF0.865
aF0.919
aF0.943
aF0.914
aF0.875
aF0.838
aF0.829
aF0.935
aF0.882
aF0.941
aF0.791
aF0.912
aF0.971
aF0.919
aF0.909
aF0.944
aF0.842
aF0.895
aF0.972
aF0.868
aF0.97
aF0.814
aF0.914
aF0.861
asg13
(lp40
F0.047695159912109375
aF0.04419398307800293
aF0.042257070541381836
aF0.0662529468536377
aF0.04371809959411621
aF0.044175148010253906
aF0.04527711868286133
aF0.03946733474731445
aF0.03903913497924805
aF0.039350032806396484
aF0.04670596122741699
aF0.04407000541687012
aF0.0393829345703125
aF0.04404187202453613
aF0.0395050048828125
aF0.04079413414001465
aF0.04305100440979004
aF0.04719114303588867
aF0.04074287414550781
aF0.04560565948486328
aF0.0396418571472168
aF0.04606294631958008
aF0.04608774185180664
aF0.04244589805603027
asg15
(lp41
F0.864
aF0.862
aF0.922
aF0.922
aF0.891
aF0.894
aF0.831
aF0.859
aF0.859
aF0.844
aF0.894
aF0.831
aF0.875
aF0.938
aF0.922
aF0.848
aF0.938
aF0.844
aF0.906
aF0.969
aF0.864
aF0.923
aF0.859
aF0.891
aF0.844
assg17
(dp42
g5
(lp43
sg7
(lp44
F0.069
aF0.103
aF0.036
aF0.107
aF0.107
aF0.276
aF0.138
aF0.036
aF0.071
aF0.0
aF0.172
aF0.241
aF0.036
aF0.036
aF0.107
aF0.138
aF0.069
aF0.214
aF0.0
aF0.071
aF0.034
aF0.0
aF0.179
aF0.214
aF0.0
asg9
(lp45
F0.946
aF0.917
aF0.972
aF0.944
aF0.917
aF0.973
aF0.972
aF0.972
aF0.889
aF0.917
aF0.946
aF0.889
aF0.944
aF1.0
aF0.944
aF0.919
aF0.944
aF0.889
aF0.972
aF0.972
aF1.0
aF0.861
aF1.0
aF0.944
aF0.833
asg11
(lp46
F0.946
aF0.917
aF0.972
aF0.919
aF0.917
aF0.818
aF0.897
aF0.972
aF0.941
aF1.0
aF0.875
aF0.821
aF0.971
aF0.973
aF0.919
aF0.895
aF0.944
aF0.842
aF1.0
aF0.946
aF0.974
aF1.0
aF0.878
aF0.85
aF1.0
asg13
(lp47
F0.11624526977539062
aF0.11023616790771484
aF0.10706210136413574
aF0.10933709144592285
aF0.10220909118652344
aF0.10995125770568848
aF0.11087512969970703
aF0.10680389404296875
aF0.10957026481628418
aF0.11399507522583008
aF0.10619306564331055
aF0.10841012001037598
aF0.108489990234375
aF0.10896801948547363
aF0.11377501487731934
aF0.10998296737670898
aF0.10359001159667969
aF0.11694598197937012
aF0.10814714431762695
aF0.11174798011779785
aF0.10763978958129883
aF0.11069273948669434
aF0.10910582542419434
aF0.11171579360961914
asg15
(lp48
F0.939
aF0.908
aF0.969
aF0.922
aF0.906
aF0.864
aF0.923
aF0.969
aF0.906
aF0.953
aF0.894
aF0.831
aF0.953
aF0.984
aF0.922
aF0.894
aF0.938
aF0.844
aF0.984
aF0.953
aF0.985
aF0.923
aF0.922
aF0.875
aF0.906
assg25
(dp49
g5
(lp50
sg7
(lp51
F0.034
aF0.103
aF0.071
aF0.143
aF0.071
aF0.069
aF0.103
aF0.25
aF0.143
aF0.071
aF0.103
aF0.103
aF0.036
aF0.036
aF0.071
aF0.138
aF0.0
aF0.179
aF0.071
aF0.036
aF0.034
aF0.0
aF0.25
aF0.071
aF0.071
asg9
(lp52
F0.973
aF0.917
aF0.944
aF0.972
aF0.944
aF0.973
aF0.972
aF1.0
aF0.917
aF0.861
aF0.946
aF0.944
aF0.889
aF1.0
aF0.944
aF0.892
aF0.944
aF0.833
aF0.944
aF0.972
aF0.892
aF0.917
aF1.0
aF0.944
aF0.917
asg11
(lp53
F0.973
aF0.917
aF0.944
aF0.897
aF0.944
aF0.947
aF0.921
aF0.837
aF0.892
aF0.939
aF0.921
aF0.919
aF0.97
aF0.973
aF0.944
aF0.892
aF1.0
aF0.857
aF0.944
aF0.972
aF0.971
aF1.0
aF0.837
aF0.944
aF0.943
asg13
(lp54
F0.08168506622314453
aF0.08174896240234375
aF0.08163809776306152
aF0.22138094902038574
aF0.08149909973144531
aF0.08201408386230469
aF0.08225512504577637
aF0.08179211616516113
aF0.08235311508178711
aF0.0819859504699707
aF0.08126616477966309
aF0.08172202110290527
aF0.0827779769897461
aF0.0820770263671875
aF0.08222508430480957
aF0.08259701728820801
aF0.08168292045593262
aF0.08201479911804199
aF0.0825200080871582
aF0.08193182945251465
aF0.08204078674316406
aF0.08181500434875488
aF0.08174276351928711
aF0.08155488967895508
asg15
(lp55
F0.97
aF0.908
aF0.938
aF0.922
aF0.938
aF0.955
aF0.938
aF0.891
aF0.891
aF0.891
aF0.924
aF0.923
aF0.922
aF0.984
aF0.938
aF0.879
aF0.969
aF0.828
aF0.938
aF0.969
aF0.924
aF0.954
aF0.891
aF0.938
aF0.922
asss.