(dp0
S'TFIDF'
p1
(dp2
S'DT'
p3
(dp4
S'features'
p5
(lp6
sS'false_alarm'
p7
(lp8
F0.389
aF0.407
aF0.34
aF0.34
aF0.302
aF0.426
aF0.37
aF0.34
aF0.283
aF0.358
aF0.352
aF0.241
aF0.396
aF0.358
aF0.283
aF0.389
aF0.241
aF0.377
aF0.283
aF0.358
aF0.333
aF0.352
aF0.302
aF0.302
aF0.453
asS'recall'
p9
(lp10
F0.792
aF0.813
aF0.884
aF0.737
aF0.853
aF0.854
aF0.802
aF0.779
aF0.905
aF0.8
aF0.802
aF0.802
aF0.779
aF0.8
aF0.832
aF0.802
aF0.729
aF0.737
aF0.789
aF0.789
aF0.771
aF0.875
aF0.789
aF0.747
aF0.811
asS'precision'
p11
(lp12
F0.784
aF0.78
aF0.824
aF0.795
aF0.835
aF0.781
aF0.794
aF0.804
aF0.851
aF0.8
aF0.802
aF0.856
aF0.779
aF0.8
aF0.84
aF0.786
aF0.843
aF0.778
aF0.833
aF0.798
aF0.804
aF0.816
aF0.824
aF0.816
aF0.762
asS'times'
p13
(lp14
F0.27375173568725586
aF0.2634408473968506
aF0.2725687026977539
aF0.26689791679382324
aF0.25189900398254395
aF0.2346639633178711
aF0.25819993019104004
aF0.26595187187194824
aF0.26447200775146484
aF0.24250507354736328
aF0.30536890029907227
aF0.2525448799133301
aF0.25386881828308105
aF0.2742578983306885
aF0.2477879524230957
aF0.2690770626068115
aF0.25393104553222656
aF0.29021406173706055
aF0.2637670040130615
aF0.26517415046691895
aF0.26213908195495605
aF0.2675440311431885
aF0.3077411651611328
aF0.26200413703918457
asS'accuracy'
p15
(lp16
F0.727
aF0.733
aF0.804
aF0.709
aF0.797
aF0.753
aF0.74
aF0.736
aF0.838
aF0.743
aF0.747
aF0.787
aF0.716
aF0.743
aF0.791
aF0.733
aF0.74
aF0.696
aF0.764
aF0.736
aF0.733
aF0.793
aF0.757
aF0.73
aF0.716
assS'SVM'
p17
(dp18
g5
(lp19
sg7
(lp20
F0.352
aF0.407
aF0.264
aF0.302
aF0.302
aF0.407
aF0.259
aF0.302
aF0.283
aF0.396
aF0.352
aF0.241
aF0.34
aF0.377
aF0.302
aF0.37
aF0.185
aF0.358
aF0.264
aF0.34
aF0.333
aF0.37
aF0.396
aF0.302
aF0.321
asg9
(lp21
F0.813
aF0.896
aF0.842
aF0.853
aF0.874
aF0.823
aF0.813
aF0.821
aF0.832
aF0.853
aF0.875
aF0.833
aF0.895
aF0.842
aF0.768
aF0.833
aF0.823
aF0.884
aF0.832
aF0.874
aF0.854
aF0.792
aF0.811
aF0.832
aF0.895
asg11
(lp22
F0.804
aF0.796
aF0.851
aF0.835
aF0.838
aF0.782
aF0.848
aF0.83
aF0.84
aF0.794
aF0.816
aF0.86
aF0.825
aF0.8
aF0.82
aF0.8
aF0.888
aF0.816
aF0.849
aF0.822
aF0.82
aF0.792
aF0.786
aF0.832
aF0.833
asg13
(lp23
F2.68937087059021
aF2.7126448154449463
aF2.5355098247528076
aF2.765716791152954
aF2.7578189373016357
aF2.678478956222534
aF2.7082619667053223
aF2.7996580600738525
aF2.726212978363037
aF2.6410069465637207
aF2.686541795730591
aF2.6479380130767822
aF2.699537992477417
aF2.6613850593566895
aF2.593022108078003
aF2.765089988708496
aF2.7821240425109863
aF2.5561559200286865
aF2.7796249389648438
aF2.5818049907684326
aF2.6689131259918213
aF2.660897970199585
aF2.628443956375122
aF2.618865966796875
asg15
(lp24
F0.753
aF0.787
aF0.804
aF0.797
aF0.811
aF0.74
aF0.787
aF0.777
aF0.791
aF0.764
aF0.793
aF0.807
aF0.811
aF0.764
aF0.743
aF0.76
aF0.82
aF0.797
aF0.797
aF0.797
aF0.787
aF0.733
aF0.736
aF0.784
aF0.818
assS'RF'
p25
(dp26
g5
(lp27
sg7
(lp28
F0.407
aF0.407
aF0.226
aF0.245
aF0.321
aF0.407
aF0.204
aF0.264
aF0.208
aF0.34
aF0.407
aF0.204
aF0.245
aF0.358
aF0.302
aF0.407
aF0.241
aF0.434
aF0.302
aF0.302
aF0.333
aF0.296
aF0.302
aF0.321
aF0.264
asg9
(lp29
F0.844
aF0.875
aF0.874
aF0.768
aF0.863
aF0.813
aF0.76
aF0.821
aF0.863
aF0.916
aF0.813
aF0.833
aF0.842
aF0.768
aF0.811
aF0.844
aF0.771
aF0.884
aF0.779
aF0.895
aF0.792
aF0.833
aF0.716
aF0.842
aF0.874
asg11
(lp30
F0.786
aF0.792
aF0.874
aF0.849
aF0.828
aF0.78
aF0.869
aF0.848
aF0.882
aF0.829
aF0.78
aF0.879
aF0.86
aF0.793
aF0.828
aF0.786
aF0.851
aF0.785
aF0.822
aF0.842
aF0.809
aF0.833
aF0.81
aF0.825
aF0.856
asg13
(lp31
F0.21610689163208008
aF0.2204608917236328
aF0.21766281127929688
aF0.21920084953308105
aF0.21596693992614746
aF0.20967698097229004
aF0.21069097518920898
aF0.21329879760742188
aF0.21583294868469238
aF0.20955300331115723
aF0.20957589149475098
aF0.21100592613220215
aF0.21056485176086426
aF0.20628690719604492
aF0.21054887771606445
aF0.21124601364135742
aF0.2100980281829834
aF0.20736002922058105
aF0.21086978912353516
aF0.21201300621032715
aF0.21383905410766602
aF0.21275091171264648
aF0.2150740623474121
aF0.2130439281463623
asg15
(lp32
F0.753
aF0.773
aF0.838
aF0.764
aF0.797
aF0.733
aF0.773
aF0.791
aF0.838
aF0.824
aF0.733
aF0.82
aF0.811
aF0.723
aF0.77
aF0.753
aF0.767
aF0.77
aF0.75
aF0.824
aF0.747
aF0.787
aF0.709
aF0.784
aF0.824
asssS'HASHING'
p33
(dp34
g3
(dp35
g5
(lp36
sg7
(lp37
F0.333
aF0.407
aF0.434
aF0.321
aF0.472
aF0.463
aF0.241
aF0.302
aF0.302
aF0.358
aF0.426
aF0.259
aF0.302
aF0.377
aF0.302
aF0.426
aF0.296
aF0.377
aF0.302
aF0.283
aF0.296
aF0.407
aF0.34
aF0.264
aF0.358
asg9
(lp38
F0.802
aF0.813
aF0.758
aF0.842
aF0.863
aF0.823
aF0.708
aF0.779
aF0.811
aF0.811
aF0.781
aF0.823
aF0.811
aF0.811
aF0.811
aF0.802
aF0.729
aF0.842
aF0.811
aF0.832
aF0.698
aF0.865
aF0.737
aF0.758
aF0.8
asg11
(lp39
F0.811
aF0.78
aF0.758
aF0.825
aF0.766
aF0.76
aF0.84
aF0.822
aF0.828
aF0.802
aF0.765
aF0.849
aF0.828
aF0.794
aF0.828
aF0.77
aF0.814
aF0.8
aF0.828
aF0.84
aF0.807
aF0.79
aF0.795
aF0.837
aF0.8
asg13
(lp40
F0.1895601749420166
aF0.1757822036743164
aF0.18340802192687988
aF0.17191720008850098
aF0.16394305229187012
aF0.17938709259033203
aF0.20106196403503418
aF0.19364619255065918
aF0.24692201614379883
aF0.1854398250579834
aF0.18561577796936035
aF0.24460673332214355
aF0.25324392318725586
aF0.18169689178466797
aF0.1888749599456787
aF0.18791794776916504
aF0.17938876152038574
aF0.2756359577178955
aF0.19626593589782715
aF0.18378305435180664
aF0.17773699760437012
aF0.18100595474243164
aF0.20197391510009766
aF0.17940497398376465
asg15
(lp41
F0.753
aF0.733
aF0.689
aF0.784
aF0.743
aF0.72
aF0.727
aF0.75
aF0.77
aF0.75
aF0.707
aF0.793
aF0.77
aF0.743
aF0.77
aF0.72
aF0.72
aF0.764
aF0.77
aF0.791
aF0.7
aF0.767
aF0.709
aF0.75
aF0.743
assg17
(dp42
g5
(lp43
sg7
(lp44
F0.407
aF0.333
aF0.245
aF0.34
aF0.321
aF0.389
aF0.278
aF0.358
aF0.208
aF0.377
aF0.352
aF0.315
aF0.396
aF0.377
aF0.358
aF0.389
aF0.222
aF0.415
aF0.34
aF0.396
aF0.426
aF0.426
aF0.321
aF0.34
aF0.245
asg9
(lp45
F0.76
aF0.917
aF0.758
aF0.842
aF0.895
aF0.771
aF0.781
aF0.916
aF0.789
aF0.874
aF0.854
aF0.781
aF0.821
aF0.779
aF0.789
aF0.76
aF0.781
aF0.853
aF0.8
aF0.832
aF0.875
aF0.781
aF0.768
aF0.832
aF0.832
asg11
(lp46
F0.768
aF0.83
aF0.847
aF0.816
aF0.833
aF0.779
aF0.833
aF0.821
aF0.872
aF0.806
aF0.812
aF0.815
aF0.788
aF0.787
aF0.798
aF0.777
aF0.862
aF0.786
aF0.809
aF0.79
aF0.785
aF0.765
aF0.811
aF0.814
aF0.859
asg13
(lp47
F0.7358272075653076
aF0.5964300632476807
aF0.7427802085876465
aF0.761864185333252
aF0.5901751518249512
aF0.7374560832977295
aF0.7454102039337158
aF0.5992209911346436
aF0.7583150863647461
aF0.7421219348907471
aF0.7384798526763916
aF0.7449040412902832
aF0.7439990043640137
aF0.5674059391021729
aF0.5813889503479004
aF0.7474958896636963
aF0.7398679256439209
aF0.580374002456665
aF0.7545208930969238
aF0.5629620552062988
aF0.5793120861053467
aF0.7680518627166748
aF0.7561178207397461
aF0.5844759941101074
asg15
(lp48
F0.7
aF0.827
aF0.757
aF0.777
aF0.818
aF0.713
aF0.76
aF0.818
aF0.791
aF0.784
aF0.78
aF0.747
aF0.743
aF0.723
aF0.736
aF0.707
aF0.78
aF0.757
aF0.75
aF0.75
aF0.767
aF0.707
aF0.736
aF0.77
aF0.804
assg25
(dp49
g5
(lp50
sg7
(lp51
F0.315
aF0.333
aF0.34
aF0.226
aF0.34
aF0.241
aF0.278
aF0.358
aF0.34
aF0.358
aF0.389
aF0.222
aF0.208
aF0.264
aF0.226
aF0.352
aF0.296
aF0.396
aF0.245
aF0.226
aF0.37
aF0.37
aF0.283
aF0.189
aF0.34
asg9
(lp52
F0.75
aF0.854
aF0.842
aF0.821
aF0.916
aF0.875
aF0.74
aF0.853
aF0.842
aF0.895
aF0.802
aF0.854
aF0.895
aF0.821
aF0.789
aF0.792
aF0.823
aF0.905
aF0.789
aF0.821
aF0.823
aF0.844
aF0.821
aF0.832
aF0.884
asg11
(lp53
F0.809
aF0.82
aF0.816
aF0.867
aF0.829
aF0.866
aF0.826
aF0.81
aF0.816
aF0.817
aF0.786
aF0.872
aF0.885
aF0.848
aF0.862
aF0.8
aF0.832
aF0.804
aF0.852
aF0.867
aF0.798
aF0.802
aF0.839
aF0.888
aF0.824
asg13
(lp54
F0.1755971908569336
aF0.17680001258850098
aF0.27869534492492676
aF0.1747112274169922
aF0.17399811744689941
aF0.17275691032409668
aF0.17242121696472168
aF0.16983604431152344
aF0.17419815063476562
aF0.17175078392028809
aF0.17424273490905762
aF0.1765749454498291
aF0.17283296585083008
aF0.17396092414855957
aF0.17450881004333496
aF0.17334890365600586
aF0.1753249168395996
aF0.17265892028808594
aF0.174638032913208
aF0.17283296585083008
aF0.1737079620361328
aF0.17319798469543457
aF0.17546391487121582
aF0.17340803146362305
asg15
(lp55
F0.727
aF0.787
aF0.777
aF0.804
aF0.824
aF0.833
aF0.733
aF0.777
aF0.777
aF0.804
aF0.733
aF0.827
aF0.858
aF0.791
aF0.784
aF0.74
aF0.78
aF0.797
aF0.777
aF0.804
aF0.753
aF0.767
aF0.784
aF0.824
aF0.804
asss.