(dp0
S'SVM'
p1
(dp2
S'features'
p3
(lp4
(lp5
a(lp6
a(lp7
a(lp8
a(lp9
a(lp10
a(lp11
a(lp12
a(lp13
a(lp14
a(lp15
a(lp16
a(lp17
a(lp18
a(lp19
a(lp20
a(lp21
a(lp22
a(lp23
a(lp24
a(lp25
a(lp26
a(lp27
a(lp28
asS'false_alarm'
p29
(lp30
F-1.0
aF-1.0
aF-1.0
aF-1.0
aF-1.0
aF-0.8
aF-0.0
aF-0.0
aF-0.667
aF-0.0
aF-1.0
aF-1.0
aF-1.0
aF-1.0
aF-1.0
aF-0.167
aF-0.5
aF-1.0
aF-1.0
aF-0.5
aF-0.571
aF-0.4
aF-0.25
aF-0.286
aF-0.4
asS'recall'
p31
(lp32
F-0.627
aF-0.627
aF-0.622
aF-0.623
aF-0.628
aF-0.621
aF-0.63
aF-0.636
aF-0.627
aF-0.632
aF-0.627
aF-0.624
aF-0.624
aF-0.628
aF-0.628
aF-0.644
aF-0.63
aF-0.622
aF-0.628
aF-0.63
aF-0.629
aF-0.634
aF-0.643
aF-0.643
aF-0.635
asS'Dist2Heaven'
p33
(lp34
F0.755
aF0.755
aF0.756
aF0.756
aF0.754
aF0.626
aF0.262
aF0.257
aF0.54
aF0.26
aF0.755
aF0.755
aF0.755
aF0.754
aF0.754
aF0.278
aF0.44
aF0.756
aF0.754
aF0.44
aF0.481
aF0.383
aF0.308
aF0.323
aF0.383
asS'precision'
p35
(lp36
F-1.0
aF-1.0
aF-0.99
aF-0.981
aF-1.0
aF-0.962
aF-1.0
aF-1.0
aF-0.981
aF-1.0
aF-1.0
aF-0.99
aF-1.0
aF-1.0
aF-1.0
aF-0.99
aF-0.981
aF-0.99
aF-1.0
aF-0.99
aF-0.962
aF-0.981
aF-0.981
aF-0.981
aF-0.981
asS'times'
p37
(lp38
F1678.4709169864655
aF1678.4735889434814
aF1678.4757721424103
aF1678.479561805725
aF1610.8002543449402
aF1610.805926322937
aF1610.806675195694
aF1610.8104240894318
aF1610.802835226059
aF1610.7838530540466
aF1610.7854251861572
aF1610.7888932228088
aF1610.7817130088806
aF1610.781935930252
aF1725.9161100387573
aF1725.9537000656128
aF1725.8986179828644
aF1725.887804031372
aF1725.8903851509094
aF1614.6440427303314
aF1614.655075788498
aF1614.6462180614471
aF1614.6438419818878
aF1614.6843240261078
asS'accuracy'
p39
(lp40
F-0.627
aF-0.627
aF-0.618
aF-0.616
aF-0.628
aF-0.608
aF-0.633
aF-0.642
aF-0.622
aF-0.634
aF-0.627
aF-0.62
aF-0.624
aF-0.628
aF-0.628
aF-0.651
aF-0.627
aF-0.618
aF-0.628
aF-0.628
aF-0.62
aF-0.633
aF-0.648
aF-0.646
aF-0.634
assS'FFT1'
p41
(dp42
g3
(lp43
(dp44
g29
S"\t| 0 >  0.002523549468899126\t--> 'True'\tCorrect Rej: 30, Miss: 42\n\t| \t| 0 >  0.0015632067784368954\t--> 'True'\tCorrect Rej: 14, Miss: 29\n\t| \t| \t| 0 >  0.0011035574303245015\t--> 'True'\tCorrect Rej: 10, Miss: 16\n\t| \t| \t| \t| 0 >  0.0008881335179600737\t--> 'True'\tCorrect Rej: 4, Miss: 10\n"
p45
sg31
S"\t| 0 >  0.002523549468899126\t--> 'False'\tFalse Alarm: 30, Hit: 42\n\t| \t| 0 >  0.0015632067784368954\t--> 'False'\tFalse Alarm: 14, Hit: 29\n\t| \t| \t| 0 >  0.0011035574303245015\t--> 'False'\tFalse Alarm: 10, Hit: 16\n\t| \t| \t| \t| 0 >  0.0008881335179600737\t--> 'False'\tFalse Alarm: 4, Hit: 10\n"
p46
sg33
S"\t| 0 >  0.002523549468899126\t--> 'False'\tFalse Alarm: 30, Hit: 42\n\t| \t| 19 >  0.0018082553723751302\t--> 'True'\tCorrect Rej: 14, Miss: 30\n\t| \t| \t| 20 >  0.0013065178108567727\t--> 'True'\tCorrect Rej: 12, Miss: 14\n\t| \t| \t| \t| 26 >  0.0010489277105612997\t--> 'False'\tFalse Alarm: 4, Hit: 9\n"
p47
sg35
S"\t| 0 >  0.002523549468899126\t--> 'True'\tCorrect Rej: 30, Miss: 42\n\t| \t| 0 >  0.0015632067784368954\t--> 'True'\tCorrect Rej: 14, Miss: 29\n\t| \t| \t| 0 >  0.0011035574303245015\t--> 'True'\tCorrect Rej: 10, Miss: 16\n\t| \t| \t| \t| 26 >  0.0009477529138787597\t--> 'False'\tFalse Alarm: 5, Hit: 8\n"
p48
sg39
S"\t| 2 >  0.0028595393345604283\t--> 'False'\tFalse Alarm: 29, Hit: 48\n\t| \t| 43 >  0.0017563502306645194\t--> 'False'\tFalse Alarm: 15, Hit: 29\n\t| \t| \t| 7 <  0.001306764159275145\t--> 'False'\tFalse Alarm: 10, Hit: 16\n\t| \t| \t| \t| 19 >  0.0016225084776535495\t--> 'True'\tCorrect Rej: 4, Miss: 3\n"
p49
sa(dp50
g29
S"\t| 0 >  0.0024244314445534786\t--> 'True'\tCorrect Rej: 36, Miss: 56\n\t| \t| 0 >  0.0015006075760430383\t--> 'True'\tCorrect Rej: 12, Miss: 22\n\t| \t| \t| 0 >  0.0010848169829109574\t--> 'True'\tCorrect Rej: 7, Miss: 15\n\t| \t| \t| \t| 0 >  0.0008702903656535024\t--> 'True'\tCorrect Rej: 3, Miss: 7\n"
p51
sg31
S"\t| 0 >  0.0024244314445534786\t--> 'False'\tFalse Alarm: 36, Hit: 56\n\t| \t| 0 >  0.0015006075760430383\t--> 'False'\tFalse Alarm: 12, Hit: 22\n\t| \t| \t| 0 >  0.0010848169829109574\t--> 'False'\tFalse Alarm: 7, Hit: 15\n\t| \t| \t| \t| 0 >  0.0008702903656535024\t--> 'False'\tFalse Alarm: 3, Hit: 7\n"
p52
sg33
S"\t| 0 >  0.0024244314445534786\t--> 'True'\tCorrect Rej: 36, Miss: 56\n\t| \t| 2 >  0.0017821232006055249\t--> 'False'\tFalse Alarm: 13, Hit: 23\n\t| \t| \t| 12 <  0.0013079415542414795\t--> 'False'\tFalse Alarm: 6, Hit: 13\n\t| \t| \t| \t| 40 >  0.0016254111986763028\t--> 'True'\tCorrect Rej: 2, Miss: 6\n"
p53
sg35
S"\t| 0 >  0.0024244314445534786\t--> 'True'\tCorrect Rej: 36, Miss: 56\n\t| \t| 0 >  0.0015006075760430383\t--> 'True'\tCorrect Rej: 12, Miss: 22\n\t| \t| \t| 0 >  0.0010848169829109574\t--> 'True'\tCorrect Rej: 7, Miss: 15\n\t| \t| \t| \t| 26 >  0.0009407179137407519\t--> 'False'\tFalse Alarm: 3, Hit: 4\n"
p54
sg39
S"\t| 2 >  0.0027968170582100505\t--> 'False'\tFalse Alarm: 31, Hit: 54\n\t| \t| 19 <  0.0019149112734608519\t--> 'False'\tFalse Alarm: 15, Hit: 22\n\t| \t| \t| 41 >  0.0022150906425074646\t--> 'False'\tFalse Alarm: 7, Hit: 14\n\t| \t| \t| \t| 4 <  0.0019145529885344348\t--> 'True'\tCorrect Rej: 5, Miss: 7\n"
p55
sa(dp56
g29
S"\t| 0 >  0.0024248431210802932\t--> 'True'\tCorrect Rej: 33, Miss: 58\n\t| \t| 0 >  0.0014903077017987727\t--> 'True'\tCorrect Rej: 19, Miss: 18\n\t| \t| \t| 0 >  0.0010894488549850977\t--> 'True'\tCorrect Rej: 4, Miss: 13\n\t| \t| \t| \t| 0 >  0.0008881335179600737\t--> 'True'\tCorrect Rej: 1, Miss: 7\n"
p57
sg31
S"\t| 0 >  0.0024248431210802932\t--> 'False'\tFalse Alarm: 33, Hit: 58\n\t| \t| 0 >  0.0014903077017987727\t--> 'False'\tFalse Alarm: 19, Hit: 18\n\t| \t| \t| 0 >  0.0010894488549850977\t--> 'False'\tFalse Alarm: 4, Hit: 13\n\t| \t| \t| \t| 0 >  0.0008881335179600737\t--> 'False'\tFalse Alarm: 1, Hit: 7\n"
p58
sg33
S"\t| 0 >  0.0024248431210802932\t--> 'True'\tCorrect Rej: 33, Miss: 58\n\t| \t| 25 >  0.0017098339677729894\t--> 'False'\tFalse Alarm: 17, Hit: 23\n\t| \t| \t| 1 <  0.0012631884833982725\t--> 'False'\tFalse Alarm: 6, Hit: 12\n\t| \t| \t| \t| 17 >  0.0016236357665476335\t--> 'True'\tCorrect Rej: 2, Miss: 4\n"
p59
sg35
S"\t| 0 >  0.0024248431210802932\t--> 'True'\tCorrect Rej: 33, Miss: 58\n\t| \t| 0 >  0.0014903077017987727\t--> 'True'\tCorrect Rej: 19, Miss: 18\n\t| \t| \t| 0 >  0.0010894488549850977\t--> 'True'\tCorrect Rej: 4, Miss: 13\n\t| \t| \t| \t| 43 >  0.0009005702772227301\t--> 'False'\tFalse Alarm: 1, Hit: 7\n"
p60
sg39
S"\t| 2 >  0.0027961426561849937\t--> 'False'\tFalse Alarm: 30, Hit: 55\n\t| \t| 42 <  0.0020048459592409197\t--> 'False'\tFalse Alarm: 13, Hit: 21\n\t| \t| \t| 6 >  0.002254192028876241\t--> 'False'\tFalse Alarm: 9, Hit: 18\n\t| \t| \t| \t| 22 >  0.001886235958758494\t--> 'False'\tFalse Alarm: 2, Hit: 6\n"
p61
sa(dp62
g29
S"\t| 0 >  0.002424019768026759\t--> 'True'\tCorrect Rej: 36, Miss: 56\n\t| \t| 0 >  0.0014899394676893276\t--> 'True'\tCorrect Rej: 13, Miss: 25\n\t| \t| \t| 0 >  0.0010849710447358493\t--> 'True'\tCorrect Rej: 8, Miss: 9\n\t| \t| \t| \t| 0 >  0.0008702903656535024\t--> 'True'\tCorrect Rej: 3, Miss: 7\n"
p63
sg31
S"\t| 0 >  0.002424019768026759\t--> 'False'\tFalse Alarm: 36, Hit: 56\n\t| \t| 0 >  0.0014899394676893276\t--> 'False'\tFalse Alarm: 13, Hit: 25\n\t| \t| \t| 0 >  0.0010849710447358493\t--> 'False'\tFalse Alarm: 8, Hit: 9\n\t| \t| \t| \t| 0 >  0.0008702903656535024\t--> 'False'\tFalse Alarm: 3, Hit: 7\n"
p64
sg33
S"\t| 0 >  0.002424019768026759\t--> 'True'\tCorrect Rej: 36, Miss: 56\n\t| \t| 5 >  0.0017581108292993935\t--> 'False'\tFalse Alarm: 12, Hit: 24\n\t| \t| \t| 14 <  0.0012550858541124062\t--> 'False'\tFalse Alarm: 3, Hit: 12\n\t| \t| \t| \t| 3 >  0.0015834519654553867\t--> 'True'\tCorrect Rej: 4, Miss: 6\n"
p65
sg35
S"\t| 0 >  0.002424019768026759\t--> 'True'\tCorrect Rej: 36, Miss: 56\n\t| \t| 0 >  0.0014899394676893276\t--> 'True'\tCorrect Rej: 13, Miss: 25\n\t| \t| \t| 0 >  0.0010849710447358493\t--> 'True'\tCorrect Rej: 8, Miss: 9\n\t| \t| \t| \t| 0 >  0.0008702903656535024\t--> 'False'\tFalse Alarm: 3, Hit: 7\n"
p66
sg39
S"\t| 25 >  0.002572910984371327\t--> 'False'\tFalse Alarm: 32, Hit: 55\n\t| \t| 2 >  0.001945593963300867\t--> 'False'\tFalse Alarm: 14, Hit: 21\n\t| \t| \t| 12 <  0.0013561402808542644\t--> 'False'\tFalse Alarm: 5, Hit: 10\n\t| \t| \t| \t| 24 >  0.0016890087133517061\t--> 'False'\tFalse Alarm: 3, Hit: 8\n"
p67
sa(dp68
g29
S"\t| 0 >  0.0027234888659657145\t--> 'True'\tCorrect Rej: 27, Miss: 44\n\t| \t| 0 >  0.0016162363617989637\t--> 'True'\tCorrect Rej: 22, Miss: 31\n\t| \t| \t| 0 >  0.0011607104099347117\t--> 'True'\tCorrect Rej: 5, Miss: 20\n\t| \t| \t| \t| 0 >  0.0009413870562102485\t--> 'True'\tCorrect Rej: 3, Miss: 5\n"
p69
sg31
S"\t| 0 >  0.0027234888659657145\t--> 'False'\tFalse Alarm: 27, Hit: 44\n\t| \t| 0 >  0.0016162363617989637\t--> 'False'\tFalse Alarm: 22, Hit: 31\n\t| \t| \t| 0 >  0.0011607104099347117\t--> 'False'\tFalse Alarm: 5, Hit: 20\n\t| \t| \t| \t| 0 >  0.0009413870562102485\t--> 'False'\tFalse Alarm: 3, Hit: 5\n"
p70
sg33
S"\t| 0 >  0.0027234888659657145\t--> 'True'\tCorrect Rej: 27, Miss: 44\n\t| \t| 10 <  0.0017742302206247011\t--> 'False'\tFalse Alarm: 16, Hit: 29\n\t| \t| \t| 10 <  0.0024598046349604765\t--> 'False'\tFalse Alarm: 10, Hit: 15\n\t| \t| \t| \t| 4 <  0.002555169531965399\t--> 'True'\tCorrect Rej: 6, Miss: 9\n"
p71
sg35
S"\t| 0 >  0.0027234888659657145\t--> 'True'\tCorrect Rej: 27, Miss: 44\n\t| \t| 0 >  0.0016162363617989637\t--> 'True'\tCorrect Rej: 22, Miss: 31\n\t| \t| \t| 0 >  0.0011607104099347117\t--> 'True'\tCorrect Rej: 5, Miss: 20\n\t| \t| \t| \t| 20 <  0.0010726882379937725\t--> 'False'\tFalse Alarm: 5, Hit: 6\n"
p72
sg39
S"\t| 10 <  0.0027210617611884863\t--> 'False'\tFalse Alarm: 34, Hit: 56\n\t| \t| 5 >  0.0037591609116121956\t--> 'False'\tFalse Alarm: 17, Hit: 27\n\t| \t| \t| 2 >  0.0030488338017087943\t--> 'False'\tFalse Alarm: 5, Hit: 10\n\t| \t| \t| \t| 18 <  0.0027805809387196146\t--> 'True'\tCorrect Rej: 4, Miss: 2\n"
p73
sa(dp74
g29
S"\t| 0 >  0.0026067227779163265\t--> 'True'\tCorrect Rej: 38, Miss: 54\n\t| \t| 0 >  0.0015389988905899219\t--> 'True'\tCorrect Rej: 15, Miss: 31\n\t| \t| \t| 0 >  0.0011497746490878916\t--> 'True'\tCorrect Rej: 3, Miss: 11\n\t| \t| \t| \t| 0 >  0.0009181927079965505\t--> 'True'\tCorrect Rej: 3, Miss: 3\n"
p75
sg31
S"\t| 0 >  0.0026067227779163265\t--> 'False'\tFalse Alarm: 38, Hit: 54\n\t| \t| 0 >  0.0015389988905899219\t--> 'False'\tFalse Alarm: 15, Hit: 31\n\t| \t| \t| 0 >  0.0011497746490878916\t--> 'False'\tFalse Alarm: 3, Hit: 11\n\t| \t| \t| \t| 0 >  0.0009181927079965505\t--> 'False'\tFalse Alarm: 3, Hit: 3\n"
p76
sg33
S"\t| 0 >  0.0026067227779163265\t--> 'False'\tFalse Alarm: 38, Hit: 54\n\t| \t| 22 >  0.00167160229339433\t--> 'True'\tCorrect Rej: 14, Miss: 28\n\t| \t| \t| 0 >  0.0012039251932735768\t--> 'False'\tFalse Alarm: 4, Hit: 13\n\t| \t| \t| \t| 17 >  0.0010635511104738775\t--> 'True'\tCorrect Rej: 2, Miss: 3\n"
p77
sg35
S"\t| 0 >  0.0026067227779163265\t--> 'True'\tCorrect Rej: 38, Miss: 54\n\t| \t| 0 >  0.0015389988905899219\t--> 'True'\tCorrect Rej: 15, Miss: 31\n\t| \t| \t| 12 >  0.0011827486956909642\t--> 'False'\tFalse Alarm: 6, Hit: 12\n\t| \t| \t| \t| 0 >  0.0009676201758959056\t--> 'True'\tCorrect Rej: 3, Miss: 2\n"
p78
sg39
S"\t| 22 <  0.0025599768178435124\t--> 'False'\tFalse Alarm: 24, Hit: 49\n\t| \t| 3 >  0.004833648754586419\t--> 'False'\tFalse Alarm: 23, Hit: 24\n\t| \t| \t| 4 <  0.003115586988601133\t--> 'False'\tFalse Alarm: 7, Hit: 13\n\t| \t| \t| \t| 3 <  0.003551234177926552\t--> 'True'\tCorrect Rej: 2, Miss: 13\n"
p79
sa(dp80
g29
S"\t| 0 >  0.00266089044576962\t--> 'True'\tCorrect Rej: 32, Miss: 53\n\t| \t| 0 >  0.0016389407597600359\t--> 'True'\tCorrect Rej: 15, Miss: 14\n\t| \t| \t| 0 >  0.0012040247242545122\t--> 'True'\tCorrect Rej: 6, Miss: 14\n\t| \t| \t| \t| 0 >  0.0009595700546022716\t--> 'True'\tCorrect Rej: 5, Miss: 15\n"
p81
sg31
S"\t| 0 >  0.00266089044576962\t--> 'False'\tFalse Alarm: 32, Hit: 53\n\t| \t| 0 >  0.0016389407597600359\t--> 'False'\tFalse Alarm: 15, Hit: 14\n\t| \t| \t| 0 >  0.0012040247242545122\t--> 'False'\tFalse Alarm: 6, Hit: 14\n\t| \t| \t| \t| 0 >  0.0009595700546022716\t--> 'False'\tFalse Alarm: 5, Hit: 15\n"
p82
sg33
S"\t| 0 >  0.00266089044576962\t--> 'True'\tCorrect Rej: 32, Miss: 53\n\t| \t| 10 <  0.0017750937970720721\t--> 'False'\tFalse Alarm: 14, Hit: 32\n\t| \t| \t| 10 <  0.0024116158396028744\t--> 'False'\tFalse Alarm: 7, Hit: 7\n\t| \t| \t| \t| 4 <  0.0025038865231138685\t--> 'True'\tCorrect Rej: 7, Miss: 4\n"
p83
sg35
S"\t| 0 >  0.00266089044576962\t--> 'True'\tCorrect Rej: 32, Miss: 53\n\t| \t| 0 >  0.0016389407597600359\t--> 'True'\tCorrect Rej: 15, Miss: 14\n\t| \t| \t| 0 >  0.0012040247242545122\t--> 'False'\tFalse Alarm: 6, Hit: 14\n\t| \t| \t| \t| 0 >  0.0009595700546022716\t--> 'True'\tCorrect Rej: 5, Miss: 15\n"
p84
sg39
S"\t| 8 <  0.0024565071911312997\t--> 'False'\tFalse Alarm: 31, Hit: 50\n\t| \t| 8 <  0.0037586650241646967\t--> 'False'\tFalse Alarm: 14, Hit: 25\n\t| \t| \t| 13 >  0.005118915500363088\t--> 'False'\tFalse Alarm: 8, Hit: 14\n\t| \t| \t| \t| 12 <  0.0788023424527289\t--> 'True'\tCorrect Rej: 4, Miss: 6\n"
p85
sa(dp86
g29
S"\t| 0 >  0.0026640770962341772\t--> 'True'\tCorrect Rej: 33, Miss: 50\n\t| \t| 0 >  0.0016374869547372318\t--> 'True'\tCorrect Rej: 13, Miss: 20\n\t| \t| \t| 0 >  0.001183449056892437\t--> 'True'\tCorrect Rej: 8, Miss: 16\n\t| \t| \t| \t| 0 >  0.0009676201758959056\t--> 'True'\tCorrect Rej: 3, Miss: 8\n"
p87
sg31
S"\t| 0 >  0.0026640770962341772\t--> 'False'\tFalse Alarm: 33, Hit: 50\n\t| \t| 0 >  0.0016374869547372318\t--> 'False'\tFalse Alarm: 13, Hit: 20\n\t| \t| \t| 0 >  0.001183449056892437\t--> 'False'\tFalse Alarm: 8, Hit: 16\n\t| \t| \t| \t| 0 >  0.0009676201758959056\t--> 'False'\tFalse Alarm: 3, Hit: 8\n"
p88
sg33
S"\t| 0 >  0.0026640770962341772\t--> 'True'\tCorrect Rej: 33, Miss: 50\n\t| \t| 8 <  0.0017259051505764892\t--> 'False'\tFalse Alarm: 17, Hit: 35\n\t| \t| \t| 0 >  0.002093668042692255\t--> 'False'\tFalse Alarm: 7, Hit: 9\n\t| \t| \t| \t| 2 >  0.0019362879935733693\t--> 'True'\tCorrect Rej: 4, Miss: 7\n"
p89
sg35
S"\t| 0 >  0.0026640770962341772\t--> 'True'\tCorrect Rej: 33, Miss: 50\n\t| \t| 0 >  0.0016374869547372318\t--> 'True'\tCorrect Rej: 13, Miss: 20\n\t| \t| \t| 6 >  0.0011815731376884817\t--> 'False'\tFalse Alarm: 8, Hit: 16\n\t| \t| \t| \t| 0 >  0.0009676201758959056\t--> 'True'\tCorrect Rej: 3, Miss: 8\n"
p90
sg39
S"\t| 10 <  0.00266584178331768\t--> 'False'\tFalse Alarm: 28, Hit: 55\n\t| \t| 10 <  0.004738173785610632\t--> 'False'\tFalse Alarm: 14, Hit: 24\n\t| \t| \t| 3 <  0.0075425556426737105\t--> 'False'\tFalse Alarm: 10, Hit: 11\n\t| \t| \t| \t| 11 <  0.008014437685249107\t--> 'True'\tCorrect Rej: 5, Miss: 4\n"
p91
sa(dp92
g29
S"\t| 0 >  0.0027178259462491915\t--> 'True'\tCorrect Rej: 29, Miss: 50\n\t| \t| 0 >  0.0016161045015969148\t--> 'True'\tCorrect Rej: 21, Miss: 23\n\t| \t| \t| 0 >  0.0011717385872752957\t--> 'True'\tCorrect Rej: 4, Miss: 18\n\t| \t| \t| \t| 0 >  0.0009595700546022716\t--> 'True'\tCorrect Rej: 4, Miss: 4\n"
p93
sg31
S"\t| 0 >  0.0027178259462491915\t--> 'False'\tFalse Alarm: 29, Hit: 50\n\t| \t| 0 >  0.0016161045015969148\t--> 'False'\tFalse Alarm: 21, Hit: 23\n\t| \t| \t| 0 >  0.0011717385872752957\t--> 'False'\tFalse Alarm: 4, Hit: 18\n\t| \t| \t| \t| 0 >  0.0009595700546022716\t--> 'False'\tFalse Alarm: 4, Hit: 4\n"
p94
sg33
S"\t| 0 >  0.0027178259462491915\t--> 'True'\tCorrect Rej: 29, Miss: 50\n\t| \t| 22 <  0.0017076910232619378\t--> 'False'\tFalse Alarm: 11, Hit: 30\n\t| \t| \t| 0 >  0.0020939450076563073\t--> 'False'\tFalse Alarm: 9, Hit: 9\n\t| \t| \t| \t| 0 <  0.0018001692400156982\t--> 'True'\tCorrect Rej: 5, Miss: 3\n"
p95
sg35
S"\t| 0 >  0.0027178259462491915\t--> 'True'\tCorrect Rej: 29, Miss: 50\n\t| \t| 0 >  0.0016161045015969148\t--> 'True'\tCorrect Rej: 21, Miss: 23\n\t| \t| \t| 14 >  0.001182724052472045\t--> 'False'\tFalse Alarm: 4, Hit: 18\n\t| \t| \t| \t| 0 >  0.0009970584008088764\t--> 'True'\tCorrect Rej: 3, Miss: 4\n"
p96
sg39
S"\t| 10 <  0.002718319277672157\t--> 'False'\tFalse Alarm: 26, Hit: 60\n\t| \t| 5 >  0.00376605230187575\t--> 'False'\tFalse Alarm: 15, Hit: 23\n\t| \t| \t| 10 <  0.003505376515385404\t--> 'False'\tFalse Alarm: 9, Hit: 8\n\t| \t| \t| \t| 2 <  0.0030448197311843915\t--> 'True'\tCorrect Rej: 7, Miss: 5\n"
p97
sa(dp98
g29
S"\t| 0 >  0.0025056956141682636\t--> 'True'\tCorrect Rej: 30, Miss: 43\n\t| \t| 0 >  0.0015385879223894128\t--> 'True'\tCorrect Rej: 10, Miss: 34\n\t| \t| \t| 0 >  0.0011197803903328718\t--> 'True'\tCorrect Rej: 11, Miss: 18\n\t| \t| \t| \t| 0 >  0.000918062777174711\t--> 'True'\tCorrect Rej: 6, Miss: 1\n"
p99
sg31
S"\t| 0 >  0.0025056956141682636\t--> 'False'\tFalse Alarm: 30, Hit: 43\n\t| \t| 0 >  0.0015385879223894128\t--> 'False'\tFalse Alarm: 10, Hit: 34\n\t| \t| \t| 0 >  0.0011197803903328718\t--> 'False'\tFalse Alarm: 11, Hit: 18\n\t| \t| \t| \t| 0 >  0.000918062777174711\t--> 'False'\tFalse Alarm: 6, Hit: 1\n"
p100
sg33
S"\t| 0 >  0.0025056956141682636\t--> 'True'\tCorrect Rej: 30, Miss: 43\n\t| \t| 12 >  0.0018124723450052478\t--> 'False'\tFalse Alarm: 12, Hit: 30\n\t| \t| \t| 8 <  0.0015055853967393643\t--> 'False'\tFalse Alarm: 14, Hit: 19\n\t| \t| \t| \t| 20 <  0.0016578101955590026\t--> 'False'\tFalse Alarm: 4, Hit: 7\n"
p101
sg35
S"\t| 0 >  0.0025056956141682636\t--> 'True'\tCorrect Rej: 30, Miss: 43\n\t| \t| 0 >  0.0015385879223894128\t--> 'True'\tCorrect Rej: 10, Miss: 34\n\t| \t| \t| 0 >  0.0011197803903328718\t--> 'True'\tCorrect Rej: 11, Miss: 18\n\t| \t| \t| \t| 6 >  0.001012687455896822\t--> 'False'\tFalse Alarm: 5, Hit: 3\n"
p102
sg39
S"\t| 7 <  0.002606287881613842\t--> 'False'\tFalse Alarm: 36, Hit: 56\n\t| \t| 3 >  0.00426531106762367\t--> 'False'\tFalse Alarm: 12, Hit: 18\n\t| \t| \t| 1 >  0.0031162160460444107\t--> 'False'\tFalse Alarm: 5, Hit: 16\n\t| \t| \t| \t| 8 >  0.002904073657515252\t--> 'True'\tCorrect Rej: 6, Miss: 4\n"
p103
sa(dp104
g29
S"\t| 0 >  0.002456041934759482\t--> 'True'\tCorrect Rej: 33, Miss: 50\n\t| \t| 0 >  0.0015023140365808497\t--> 'True'\tCorrect Rej: 17, Miss: 26\n\t| \t| \t| 0 >  0.0011336286819614034\t--> 'True'\tCorrect Rej: 4, Miss: 10\n\t| \t| \t| \t| 0 >  0.0008865653847423832\t--> 'True'\tCorrect Rej: 4, Miss: 15\n"
p105
sg31
S"\t| 0 >  0.002456041934759482\t--> 'False'\tFalse Alarm: 33, Hit: 50\n\t| \t| 0 >  0.0015023140365808497\t--> 'False'\tFalse Alarm: 17, Hit: 26\n\t| \t| \t| 0 >  0.0011336286819614034\t--> 'False'\tFalse Alarm: 4, Hit: 10\n\t| \t| \t| \t| 0 >  0.0008865653847423832\t--> 'False'\tFalse Alarm: 4, Hit: 15\n"
p106
sg33
S"\t| 0 >  0.002456041934759482\t--> 'True'\tCorrect Rej: 33, Miss: 50\n\t| \t| 12 >  0.0017257845036698673\t--> 'False'\tFalse Alarm: 18, Hit: 30\n\t| \t| \t| 20 >  0.001450545516614872\t--> 'False'\tFalse Alarm: 4, Hit: 9\n\t| \t| \t| \t| 1 <  0.0011818392980363858\t--> 'False'\tFalse Alarm: 5, Hit: 10\n"
p107
sg35
S"\t| 0 >  0.002456041934759482\t--> 'True'\tCorrect Rej: 33, Miss: 50\n\t| \t| 0 >  0.0015023140365808497\t--> 'True'\tCorrect Rej: 17, Miss: 26\n\t| \t| \t| 0 >  0.0011336286819614034\t--> 'True'\tCorrect Rej: 4, Miss: 10\n\t| \t| \t| \t| 13 >  0.0010819176770651864\t--> 'False'\tFalse Alarm: 4, Hit: 7\n"
p108
sg39
S"\t| 7 <  0.0025544531156357726\t--> 'False'\tFalse Alarm: 29, Hit: 55\n\t| \t| 8 <  0.003759833181258767\t--> 'False'\tFalse Alarm: 18, Hit: 21\n\t| \t| \t| 9 >  0.004565568104666493\t--> 'False'\tFalse Alarm: 6, Hit: 15\n\t| \t| \t| \t| 0 <  0.003656295680991819\t--> 'True'\tCorrect Rej: 4, Miss: 7\n"
p109
sa(dp110
g29
S"\t| 0 >  0.0024360172276247554\t--> 'True'\tCorrect Rej: 30, Miss: 53\n\t| \t| 0 >  0.0015017288055817488\t--> 'True'\tCorrect Rej: 20, Miss: 26\n\t| \t| \t| 0 >  0.0011106580817702718\t--> 'True'\tCorrect Rej: 6, Miss: 13\n\t| \t| \t| \t| 0 >  0.0008925743370229054\t--> 'True'\tCorrect Rej: 5, Miss: 3\n"
p111
sg31
S"\t| 0 >  0.0024360172276247554\t--> 'False'\tFalse Alarm: 30, Hit: 53\n\t| \t| 0 >  0.0015017288055817488\t--> 'False'\tFalse Alarm: 20, Hit: 26\n\t| \t| \t| 0 >  0.0011106580817702718\t--> 'False'\tFalse Alarm: 6, Hit: 13\n\t| \t| \t| \t| 0 >  0.0008925743370229054\t--> 'False'\tFalse Alarm: 5, Hit: 3\n"
p112
sg33
S"\t| 0 >  0.0024360172276247554\t--> 'True'\tCorrect Rej: 30, Miss: 53\n\t| \t| 19 <  0.0017627684620529693\t--> 'False'\tFalse Alarm: 19, Hit: 20\n\t| \t| \t| 20 >  0.0021643109227853577\t--> 'False'\tFalse Alarm: 7, Hit: 18\n\t| \t| \t| \t| 0 >  0.0019102697963139631\t--> 'False'\tFalse Alarm: 2, Hit: 4\n"
p113
sg35
S"\t| 0 >  0.0024360172276247554\t--> 'True'\tCorrect Rej: 30, Miss: 53\n\t| \t| 0 >  0.0015017288055817488\t--> 'True'\tCorrect Rej: 20, Miss: 26\n\t| \t| \t| 0 >  0.0011106580817702718\t--> 'True'\tCorrect Rej: 6, Miss: 13\n\t| \t| \t| \t| 9 >  0.000917930150025855\t--> 'False'\tFalse Alarm: 4, Hit: 4\n"
p114
sg39
S"\t| 19 <  0.0027776509218177224\t--> 'False'\tFalse Alarm: 32, Hit: 47\n\t| \t| 0 >  0.003415192317088164\t--> 'False'\tFalse Alarm: 19, Hit: 23\n\t| \t| \t| 12 >  0.0030435214465175\t--> 'False'\tFalse Alarm: 5, Hit: 17\n\t| \t| \t| \t| 8 >  0.002844296288929433\t--> 'True'\tCorrect Rej: 5, Miss: 6\n"
p115
sa(dp116
g29
S"\t| 0 >  0.002413859066007253\t--> 'True'\tCorrect Rej: 35, Miss: 49\n\t| \t| 0 >  0.0015383816385095036\t--> 'True'\tCorrect Rej: 9, Miss: 23\n\t| \t| \t| 0 >  0.0011400521415099725\t--> 'True'\tCorrect Rej: 9, Miss: 13\n\t| \t| \t| \t| 0 >  0.0009398290754073167\t--> 'True'\tCorrect Rej: 2, Miss: 9\n"
p117
sg31
S"\t| 0 >  0.002413859066007253\t--> 'False'\tFalse Alarm: 35, Hit: 49\n\t| \t| 0 >  0.0015383816385095036\t--> 'False'\tFalse Alarm: 9, Hit: 23\n\t| \t| \t| 0 >  0.0011400521415099725\t--> 'False'\tFalse Alarm: 9, Hit: 13\n\t| \t| \t| \t| 0 >  0.0009398290754073167\t--> 'False'\tFalse Alarm: 2, Hit: 9\n"
p118
sg33
S"\t| 0 >  0.002413859066007253\t--> 'True'\tCorrect Rej: 35, Miss: 49\n\t| \t| 13 >  0.0019056940181148008\t--> 'False'\tFalse Alarm: 17, Hit: 22\n\t| \t| \t| 4 >  0.001387897599960153\t--> 'False'\tFalse Alarm: 3, Hit: 15\n\t| \t| \t| \t| 9 <  0.001119348623331962\t--> 'True'\tCorrect Rej: 4, Miss: 9\n"
p119
sg35
S"\t| 0 >  0.002413859066007253\t--> 'True'\tCorrect Rej: 35, Miss: 49\n\t| \t| 0 >  0.0015383816385095036\t--> 'True'\tCorrect Rej: 9, Miss: 23\n\t| \t| \t| 0 >  0.0011400521415099725\t--> 'True'\tCorrect Rej: 9, Miss: 13\n\t| \t| \t| \t| 13 >  0.0010818391479791084\t--> 'False'\tFalse Alarm: 4, Hit: 9\n"
p120
sg39
S"\t| 3 >  0.00304461177616645\t--> 'False'\tFalse Alarm: 37, Hit: 52\n\t| \t| 1 <  0.0019061402899494366\t--> 'False'\tFalse Alarm: 13, Hit: 31\n\t| \t| \t| 17 <  0.002720435503733451\t--> 'False'\tFalse Alarm: 4, Hit: 10\n\t| \t| \t| \t| 6 <  0.0029028376720296057\t--> 'True'\tCorrect Rej: 4, Miss: 8\n"
p121
sa(dp122
g29
S"\t| 0 >  0.0023652221057708783\t--> 'True'\tCorrect Rej: 36, Miss: 57\n\t| \t| 0 >  0.0014977140066892106\t--> 'True'\tCorrect Rej: 13, Miss: 24\n\t| \t| \t| 0 >  0.0011104285023036554\t--> 'True'\tCorrect Rej: 7, Miss: 12\n\t| \t| \t| \t| 0 >  0.0008925743370229054\t--> 'True'\tCorrect Rej: 1, Miss: 5\n"
p123
sg31
S"\t| 0 >  0.0023652221057708783\t--> 'False'\tFalse Alarm: 36, Hit: 57\n\t| \t| 0 >  0.0014977140066892106\t--> 'False'\tFalse Alarm: 13, Hit: 24\n\t| \t| \t| 0 >  0.0011104285023036554\t--> 'False'\tFalse Alarm: 7, Hit: 12\n\t| \t| \t| \t| 0 >  0.0008925743370229054\t--> 'False'\tFalse Alarm: 1, Hit: 5\n"
p124
sg33
S"\t| 0 >  0.0023652221057708783\t--> 'True'\tCorrect Rej: 36, Miss: 57\n\t| \t| 12 >  0.0017036675684342906\t--> 'False'\tFalse Alarm: 13, Hit: 27\n\t| \t| \t| 8 <  0.0014198774491228539\t--> 'False'\tFalse Alarm: 7, Hit: 7\n\t| \t| \t| \t| 19 <  0.0015384766370550784\t--> 'False'\tFalse Alarm: 4, Hit: 6\n"
p125
sg35
S"\t| 0 >  0.0023652221057708783\t--> 'True'\tCorrect Rej: 36, Miss: 57\n\t| \t| 0 >  0.0014977140066892106\t--> 'True'\tCorrect Rej: 13, Miss: 24\n\t| \t| \t| 0 >  0.0011104285023036554\t--> 'True'\tCorrect Rej: 7, Miss: 12\n\t| \t| \t| \t| 12 >  0.0010154650632303154\t--> 'False'\tFalse Alarm: 1, Hit: 5\n"
p126
sg39
S"\t| 11 >  0.003551393368896381\t--> 'False'\tFalse Alarm: 32, Hit: 57\n\t| \t| 1 <  0.002163991728912382\t--> 'False'\tFalse Alarm: 15, Hit: 24\n\t| \t| \t| 0 <  0.0028400009373341136\t--> 'False'\tFalse Alarm: 10, Hit: 12\n\t| \t| \t| \t| 1 <  0.003115763157948454\t--> 'True'\tCorrect Rej: 3, Miss: 6\n"
p127
sa(dp128
g29
S"\t| 0 >  0.002296596669445248\t--> 'True'\tCorrect Rej: 34, Miss: 58\n\t| \t| 0 >  0.0015005941729342217\t--> 'True'\tCorrect Rej: 12, Miss: 24\n\t| \t| \t| 0 >  0.001094321677637824\t--> 'True'\tCorrect Rej: 10, Miss: 16\n\t| \t| \t| \t| 0 >  0.0008760068374043602\t--> 'True'\tCorrect Rej: 3, Miss: 3\n"
p129
sg31
S"\t| 0 >  0.002296596669445248\t--> 'False'\tFalse Alarm: 34, Hit: 58\n\t| \t| 0 >  0.0015005941729342217\t--> 'False'\tFalse Alarm: 12, Hit: 24\n\t| \t| \t| 0 >  0.001094321677637824\t--> 'False'\tFalse Alarm: 10, Hit: 16\n\t| \t| \t| \t| 0 >  0.0008760068374043602\t--> 'False'\tFalse Alarm: 3, Hit: 3\n"
p130
sg33
S"\t| 0 >  0.002296596669445248\t--> 'False'\tFalse Alarm: 34, Hit: 58\n\t| \t| 34 <  0.0016025533521591305\t--> 'True'\tCorrect Rej: 16, Miss: 21\n\t| \t| \t| 12 >  0.0019790265882292245\t--> 'True'\tCorrect Rej: 7, Miss: 13\n\t| \t| \t| \t| 14 >  0.0017839766666633784\t--> 'False'\tFalse Alarm: 2, Hit: 6\n"
p131
sg35
S"\t| 0 >  0.002296596669445248\t--> 'True'\tCorrect Rej: 34, Miss: 58\n\t| \t| 0 >  0.0015005941729342217\t--> 'True'\tCorrect Rej: 12, Miss: 24\n\t| \t| \t| 34 >  0.0011428295604011885\t--> 'False'\tFalse Alarm: 10, Hit: 17\n\t| \t| \t| \t| 0 >  0.0009343187486362308\t--> 'True'\tCorrect Rej: 4, Miss: 3\n"
p132
sg39
S"\t| 9 >  0.002296933587116721\t--> 'False'\tFalse Alarm: 31, Hit: 54\n\t| \t| 13 >  0.0016651861945028862\t--> 'False'\tFalse Alarm: 12, Hit: 24\n\t| \t| \t| 11 <  0.022454496554331863\t--> 'False'\tFalse Alarm: 10, Hit: 16\n\t| \t| \t| \t| 21 <  0.0012075498384962443\t--> 'False'\tFalse Alarm: 2, Hit: 3\n"
p133
sa(dp134
g29
S"\t| 0 >  0.0023357102644152496\t--> 'True'\tCorrect Rej: 37, Miss: 52\n\t| \t| 0 >  0.0015175203234633386\t--> 'True'\tCorrect Rej: 12, Miss: 24\n\t| \t| \t| 0 >  0.0011327032546592458\t--> 'True'\tCorrect Rej: 5, Miss: 14\n\t| \t| \t| \t| 0 >  0.0009223203064856877\t--> 'True'\tCorrect Rej: 5, Miss: 6\n"
p135
sg31
S"\t| 0 >  0.0023357102644152496\t--> 'False'\tFalse Alarm: 37, Hit: 52\n\t| \t| 0 >  0.0015175203234633386\t--> 'False'\tFalse Alarm: 12, Hit: 24\n\t| \t| \t| 0 >  0.0011327032546592458\t--> 'False'\tFalse Alarm: 5, Hit: 14\n\t| \t| \t| \t| 0 >  0.0009223203064856877\t--> 'False'\tFalse Alarm: 5, Hit: 6\n"
p136
sg33
S"\t| 0 >  0.0023357102644152496\t--> 'False'\tFalse Alarm: 37, Hit: 52\n\t| \t| 34 <  0.0016025533521591305\t--> 'True'\tCorrect Rej: 12, Miss: 25\n\t| \t| \t| 2 >  0.0019762182392892335\t--> 'True'\tCorrect Rej: 9, Miss: 12\n\t| \t| \t| \t| 21 >  0.0017808763693812184\t--> 'False'\tFalse Alarm: 1, Hit: 7\n"
p137
sg35
S"\t| 0 >  0.0023357102644152496\t--> 'True'\tCorrect Rej: 37, Miss: 52\n\t| \t| 34 >  0.0016025533521591305\t--> 'False'\tFalse Alarm: 13, Hit: 27\n\t| \t| \t| 0 >  0.0011636904673877045\t--> 'True'\tCorrect Rej: 3, Miss: 15\n\t| \t| \t| \t| 0 >  0.0010155132715624886\t--> 'True'\tCorrect Rej: 5, Miss: 3\n"
p138
sg39
S"\t| 9 >  0.002295699053712169\t--> 'False'\tFalse Alarm: 34, Hit: 52\n\t| \t| 7 >  0.001643348911179521\t--> 'False'\tFalse Alarm: 14, Hit: 24\n\t| \t| \t| 34 >  0.0012078614659617596\t--> 'False'\tFalse Alarm: 4, Hit: 16\n\t| \t| \t| \t| 0 >  0.0010574153977294532\t--> 'True'\tCorrect Rej: 5, Miss: 7\n"
p139
sa(dp140
g29
S"\t| 0 >  0.0023159214900350753\t--> 'True'\tCorrect Rej: 29, Miss: 62\n\t| \t| 0 >  0.0015079835002866893\t--> 'True'\tCorrect Rej: 16, Miss: 19\n\t| \t| \t| 0 >  0.0011031307733743321\t--> 'True'\tCorrect Rej: 8, Miss: 17\n\t| \t| \t| \t| 0 >  0.0009223203064856877\t--> 'True'\tCorrect Rej: 2, Miss: 1\n"
p141
sg31
S"\t| 0 >  0.0023159214900350753\t--> 'False'\tFalse Alarm: 29, Hit: 62\n\t| \t| 0 >  0.0015079835002866893\t--> 'False'\tFalse Alarm: 16, Hit: 19\n\t| \t| \t| 0 >  0.0011031307733743321\t--> 'False'\tFalse Alarm: 8, Hit: 17\n\t| \t| \t| \t| 0 >  0.0009223203064856877\t--> 'False'\tFalse Alarm: 2, Hit: 1\n"
p142
sg33
S"\t| 0 >  0.0023159214900350753\t--> 'True'\tCorrect Rej: 29, Miss: 62\n\t| \t| 9 >  0.0015834134318017208\t--> 'False'\tFalse Alarm: 17, Hit: 15\n\t| \t| \t| 28 <  0.0012697343120432805\t--> 'False'\tFalse Alarm: 5, Hit: 7\n\t| \t| \t| \t| 1 <  0.0013645907932221802\t--> 'True'\tCorrect Rej: 7, Miss: 9\n"
p143
sg35
S"\t| 0 >  0.0023159214900350753\t--> 'True'\tCorrect Rej: 29, Miss: 62\n\t| \t| 0 >  0.0015079835002866893\t--> 'True'\tCorrect Rej: 16, Miss: 19\n\t| \t| \t| 0 >  0.0011031307733743321\t--> 'True'\tCorrect Rej: 8, Miss: 17\n\t| \t| \t| \t| 28 <  0.0010157168557672618\t--> 'False'\tFalse Alarm: 2, Hit: 1\n"
p144
sg39
S"\t| 11 <  0.0032230632387374204\t--> 'False'\tFalse Alarm: 28, Hit: 54\n\t| \t| 40 >  0.005408792718680975\t--> 'False'\tFalse Alarm: 19, Hit: 21\n\t| \t| \t| 16 >  0.0030654012715452114\t--> 'False'\tFalse Alarm: 7, Hit: 12\n\t| \t| \t| \t| 11 >  0.7939302875952391\t--> 'False'\tFalse Alarm: 4, Hit: 7\n"
p145
sa(dp146
g29
S"\t| 0 >  0.00243195307832293\t--> 'True'\tCorrect Rej: 18, Miss: 45\n\t| \t| 0 >  0.001562727925617195\t--> 'True'\tCorrect Rej: 24, Miss: 31\n\t| \t| \t| 0 >  0.0011542033399102492\t--> 'True'\tCorrect Rej: 7, Miss: 10\n\t| \t| \t| \t| 0 >  0.000934191475929842\t--> 'True'\tCorrect Rej: 8, Miss: 9\n"
p147
sg31
S"\t| 0 >  0.00243195307832293\t--> 'False'\tFalse Alarm: 18, Hit: 45\n\t| \t| 0 >  0.001562727925617195\t--> 'False'\tFalse Alarm: 24, Hit: 31\n\t| \t| \t| 0 >  0.0011542033399102492\t--> 'False'\tFalse Alarm: 7, Hit: 10\n\t| \t| \t| \t| 0 >  0.000934191475929842\t--> 'False'\tFalse Alarm: 8, Hit: 9\n"
p148
sg33
S"\t| 0 >  0.00243195307832293\t--> 'True'\tCorrect Rej: 18, Miss: 45\n\t| \t| 36 >  0.0016936314856519563\t--> 'False'\tFalse Alarm: 17, Hit: 29\n\t| \t| \t| 34 >  0.0013481638355154386\t--> 'False'\tFalse Alarm: 10, Hit: 15\n\t| \t| \t| \t| 35 <  0.001196560358857935\t--> 'True'\tCorrect Rej: 9, Miss: 8\n"
p149
sg35
S"\t| 0 >  0.00243195307832293\t--> 'True'\tCorrect Rej: 18, Miss: 45\n\t| \t| 0 >  0.001562727925617195\t--> 'True'\tCorrect Rej: 24, Miss: 31\n\t| \t| \t| 34 >  0.0012078698037456495\t--> 'False'\tFalse Alarm: 5, Hit: 14\n\t| \t| \t| \t| 0 >  0.0010155132715624886\t--> 'True'\tCorrect Rej: 10, Miss: 6\n"
p150
sg39
S"\t| 42 <  0.002992886750610371\t--> 'False'\tFalse Alarm: 35, Hit: 52\n\t| \t| 5 >  0.0035821903564468398\t--> 'False'\tFalse Alarm: 11, Hit: 23\n\t| \t| \t| 13 <  0.002859079832137551\t--> 'False'\tFalse Alarm: 10, Hit: 15\n\t| \t| \t| \t| 27 >  0.0033029391800133566\t--> 'True'\tCorrect Rej: 3, Miss: 4\n"
p151
sa(dp152
g29
S"\t| 0 >  0.002379892886597149\t--> 'True'\tCorrect Rej: 31, Miss: 46\n\t| \t| 0 >  0.0015278534096789685\t--> 'True'\tCorrect Rej: 11, Miss: 33\n\t| \t| \t| 0 >  0.0011536199329746694\t--> 'True'\tCorrect Rej: 8, Miss: 7\n\t| \t| \t| \t| 0 >  0.0009343187486362308\t--> 'True'\tCorrect Rej: 5, Miss: 10\n"
p153
sg31
S"\t| 0 >  0.002379892886597149\t--> 'False'\tFalse Alarm: 31, Hit: 46\n\t| \t| 0 >  0.0015278534096789685\t--> 'False'\tFalse Alarm: 11, Hit: 33\n\t| \t| \t| 0 >  0.0011536199329746694\t--> 'False'\tFalse Alarm: 8, Hit: 7\n\t| \t| \t| \t| 0 >  0.0009343187486362308\t--> 'False'\tFalse Alarm: 5, Hit: 10\n"
p154
sg33
S"\t| 0 >  0.002379892886597149\t--> 'False'\tFalse Alarm: 31, Hit: 46\n\t| \t| 11 >  0.0022548903557060435\t--> 'True'\tCorrect Rej: 12, Miss: 25\n\t| \t| \t| 16 >  0.00165433817017094\t--> 'True'\tCorrect Rej: 7, Miss: 18\n\t| \t| \t| \t| 9 >  0.0012683283389585498\t--> 'False'\tFalse Alarm: 4, Hit: 7\n"
p155
sg35
S"\t| 0 >  0.002379892886597149\t--> 'True'\tCorrect Rej: 31, Miss: 46\n\t| \t| 0 >  0.0015278534096789685\t--> 'True'\tCorrect Rej: 11, Miss: 33\n\t| \t| \t| 34 >  0.0012085802854842438\t--> 'False'\tFalse Alarm: 7, Hit: 8\n\t| \t| \t| \t| 0 >  0.0010234914490102169\t--> 'True'\tCorrect Rej: 5, Miss: 8\n"
p156
sg39
S"\t| 11 <  0.0033045939234897996\t--> 'False'\tFalse Alarm: 32, Hit: 55\n\t| \t| 14 >  0.003306275174157747\t--> 'False'\tFalse Alarm: 12, Hit: 23\n\t| \t| \t| 8 >  0.0016123669847401749\t--> 'False'\tFalse Alarm: 8, Hit: 13\n\t| \t| \t| \t| 11 <  0.7917643224165223\t--> 'True'\tCorrect Rej: 9, Miss: 9\n"
p157
sa(dp158
g29
S"\t| 0 >  0.00254617149129396\t--> 'True'\tCorrect Rej: 33, Miss: 56\n\t| \t| 0 >  0.0016238781692741208\t--> 'True'\tCorrect Rej: 12, Miss: 22\n\t| \t| \t| 0 >  0.0012263971879286032\t--> 'True'\tCorrect Rej: 6, Miss: 10\n\t| \t| \t| \t| 0 >  0.0010196131905525064\t--> 'True'\tCorrect Rej: 8, Miss: 7\n"
p159
sg31
S"\t| 0 >  0.00254617149129396\t--> 'False'\tFalse Alarm: 33, Hit: 56\n\t| \t| 0 >  0.0016238781692741208\t--> 'False'\tFalse Alarm: 12, Hit: 22\n\t| \t| \t| 0 >  0.0012263971879286032\t--> 'False'\tFalse Alarm: 6, Hit: 10\n\t| \t| \t| \t| 0 >  0.0010196131905525064\t--> 'False'\tFalse Alarm: 8, Hit: 7\n"
p160
sg33
S"\t| 0 >  0.00254617149129396\t--> 'False'\tFalse Alarm: 33, Hit: 56\n\t| \t| 11 <  0.002159000420673411\t--> 'True'\tCorrect Rej: 15, Miss: 24\n\t| \t| \t| 7 >  0.0020210535635220256\t--> 'True'\tCorrect Rej: 5, Miss: 13\n\t| \t| \t| \t| 2 <  0.0013272344100959024\t--> 'False'\tFalse Alarm: 7, Hit: 8\n"
p161
sg35
S"\t| 0 >  0.00254617149129396\t--> 'True'\tCorrect Rej: 33, Miss: 56\n\t| \t| 0 >  0.0016238781692741208\t--> 'True'\tCorrect Rej: 12, Miss: 22\n\t| \t| \t| 0 >  0.0012263971879286032\t--> 'True'\tCorrect Rej: 6, Miss: 10\n\t| \t| \t| \t| 11 >  0.056531341520185845\t--> 'False'\tFalse Alarm: 7, Hit: 6\n"
p162
sg39
S"\t| 11 >  0.00303015448605403\t--> 'False'\tFalse Alarm: 30, Hit: 47\n\t| \t| 0 >  0.002159388941324132\t--> 'False'\tFalse Alarm: 17, Hit: 33\n\t| \t| \t| 14 <  0.0017456615782124065\t--> 'False'\tFalse Alarm: 8, Hit: 16\n\t| \t| \t| \t| 24 <  0.002021931478738175\t--> 'True'\tCorrect Rej: 2, Miss: 7\n"
p163
sa(dp164
g29
S"\t| 0 >  0.0025455137265559297\t--> 'True'\tCorrect Rej: 36, Miss: 58\n\t| \t| 0 >  0.0016132379542720637\t--> 'True'\tCorrect Rej: 12, Miss: 19\n\t| \t| \t| 0 >  0.0011690807944612115\t--> 'True'\tCorrect Rej: 8, Miss: 18\n\t| \t| \t| \t| 0 >  0.001019884681677089\t--> 'True'\tCorrect Rej: 0, Miss: 2\n"
p165
sg31
S"\t| 0 >  0.0025455137265559297\t--> 'False'\tFalse Alarm: 36, Hit: 58\n\t| \t| 0 >  0.0016132379542720637\t--> 'False'\tFalse Alarm: 12, Hit: 19\n\t| \t| \t| 0 >  0.0011690807944612115\t--> 'False'\tFalse Alarm: 8, Hit: 18\n\t| \t| \t| \t| 0 >  0.001019884681677089\t--> 'False'\tFalse Alarm: 0, Hit: 2\n"
p166
sg33
S"\t| 0 >  0.0025455137265559297\t--> 'False'\tFalse Alarm: 36, Hit: 58\n\t| \t| 11 <  0.002159606890862186\t--> 'True'\tCorrect Rej: 17, Miss: 26\n\t| \t| \t| 8 >  0.002091968699321242\t--> 'True'\tCorrect Rej: 4, Miss: 10\n\t| \t| \t| \t| 1 >  0.0012187231411156575\t--> 'False'\tFalse Alarm: 3, Hit: 6\n"
p167
sg35
S"\t| 0 >  0.0025455137265559297\t--> 'True'\tCorrect Rej: 36, Miss: 58\n\t| \t| 0 >  0.0016132379542720637\t--> 'True'\tCorrect Rej: 12, Miss: 19\n\t| \t| \t| 11 >  0.019926276527984108\t--> 'False'\tFalse Alarm: 6, Hit: 11\n\t| \t| \t| \t| 0 >  0.0012497910799045418\t--> 'True'\tCorrect Rej: 3, Miss: 10\n"
p168
sg39
S"\t| 1 >  0.0024040047347890065\t--> 'False'\tFalse Alarm: 34, Hit: 51\n\t| \t| 23 <  0.00169871836503168\t--> 'False'\tFalse Alarm: 12, Hit: 29\n\t| \t| \t| 14 <  0.001960132280461595\t--> 'False'\tFalse Alarm: 6, Hit: 11\n\t| \t| \t| \t| 14 >  0.0022769572161659376\t--> 'True'\tCorrect Rej: 4, Miss: 5\n"
p169
sa(dp170
g29
S"\t| 0 >  0.00263191034092805\t--> 'True'\tCorrect Rej: 24, Miss: 51\n\t| \t| 0 >  0.0016238781692741208\t--> 'True'\tCorrect Rej: 20, Miss: 27\n\t| \t| \t| 0 >  0.0012253141971282587\t--> 'True'\tCorrect Rej: 5, Miss: 12\n\t| \t| \t| \t| 0 >  0.001019884681677089\t--> 'True'\tCorrect Rej: 9, Miss: 4\n"
p171
sg31
S"\t| 0 >  0.00263191034092805\t--> 'False'\tFalse Alarm: 24, Hit: 51\n\t| \t| 0 >  0.0016238781692741208\t--> 'False'\tFalse Alarm: 20, Hit: 27\n\t| \t| \t| 0 >  0.0012253141971282587\t--> 'False'\tFalse Alarm: 5, Hit: 12\n\t| \t| \t| \t| 0 >  0.001019884681677089\t--> 'False'\tFalse Alarm: 9, Hit: 4\n"
p172
sg33
S"\t| 0 >  0.00263191034092805\t--> 'False'\tFalse Alarm: 24, Hit: 51\n\t| \t| 11 <  0.0021601094322142586\t--> 'True'\tCorrect Rej: 25, Miss: 20\n\t| \t| \t| 23 <  0.0022337103147805812\t--> 'True'\tCorrect Rej: 7, Miss: 20\n\t| \t| \t| \t| 11 >  0.0026001056177298483\t--> 'False'\tFalse Alarm: 2, Hit: 6\n"
p173
sg35
S"\t| 0 >  0.00263191034092805\t--> 'True'\tCorrect Rej: 24, Miss: 51\n\t| \t| 0 >  0.0016238781692741208\t--> 'True'\tCorrect Rej: 20, Miss: 27\n\t| \t| \t| 0 >  0.0012253141971282587\t--> 'True'\tCorrect Rej: 5, Miss: 12\n\t| \t| \t| \t| 3 >  0.0010627629939543204\t--> 'False'\tFalse Alarm: 9, Hit: 6\n"
p174
sg39
S"\t| 10 >  0.002338932128072071\t--> 'False'\tFalse Alarm: 29, Hit: 55\n\t| \t| 28 <  0.001758263643437744\t--> 'False'\tFalse Alarm: 11, Hit: 20\n\t| \t| \t| 16 >  0.0019916731602701004\t--> 'False'\tFalse Alarm: 8, Hit: 12\n\t| \t| \t| \t| 0 >  0.0019005795617817074\t--> 'False'\tFalse Alarm: 5, Hit: 11\n"
p175
sa(dp176
g29
S"\t| 0 >  0.00260032490861474\t--> 'True'\tCorrect Rej: 24, Miss: 53\n\t| \t| 0 >  0.0016336554957357599\t--> 'True'\tCorrect Rej: 17, Miss: 26\n\t| \t| \t| 0 >  0.001179913657416969\t--> 'True'\tCorrect Rej: 12, Miss: 15\n\t| \t| \t| \t| 0 >  0.0009515732834177665\t--> 'True'\tCorrect Rej: 6, Miss: 7\n"
p177
sg31
S"\t| 0 >  0.00260032490861474\t--> 'False'\tFalse Alarm: 24, Hit: 53\n\t| \t| 0 >  0.0016336554957357599\t--> 'False'\tFalse Alarm: 17, Hit: 26\n\t| \t| \t| 0 >  0.001179913657416969\t--> 'False'\tFalse Alarm: 12, Hit: 15\n\t| \t| \t| \t| 0 >  0.0009515732834177665\t--> 'False'\tFalse Alarm: 6, Hit: 7\n"
p178
sg33
S"\t| 0 >  0.00260032490861474\t--> 'True'\tCorrect Rej: 24, Miss: 53\n\t| \t| 11 >  0.002159905341152742\t--> 'False'\tFalse Alarm: 14, Hit: 30\n\t| \t| \t| 28 <  0.00190063847944754\t--> 'False'\tFalse Alarm: 17, Hit: 9\n\t| \t| \t| \t| 13 >  0.0019895244763656643\t--> 'True'\tCorrect Rej: 2, Miss: 4\n"
p179
sg35
S"\t| 0 >  0.00260032490861474\t--> 'True'\tCorrect Rej: 24, Miss: 53\n\t| \t| 0 >  0.0016336554957357599\t--> 'True'\tCorrect Rej: 17, Miss: 26\n\t| \t| \t| 35 >  0.0013435304688829163\t--> 'False'\tFalse Alarm: 11, Hit: 14\n\t| \t| \t| \t| 0 >  0.0010619914313714648\t--> 'True'\tCorrect Rej: 4, Miss: 8\n"
p180
sg39
S"\t| 28 <  0.00276641645018166\t--> 'False'\tFalse Alarm: 38, Hit: 50\n\t| \t| 7 >  0.0031807265940398195\t--> 'False'\tFalse Alarm: 8, Hit: 27\n\t| \t| \t| 15 >  0.002766434935506379\t--> 'False'\tFalse Alarm: 8, Hit: 11\n\t| \t| \t| \t| 10 <  0.0014641695758240247\t--> 'True'\tCorrect Rej: 1, Miss: 8\n"
p181
sa(dp182
g29
S"\t| 0 >  0.0025976822962382145\t--> 'True'\tCorrect Rej: 33, Miss: 50\n\t| \t| 0 >  0.0016123614960221984\t--> 'True'\tCorrect Rej: 16, Miss: 29\n\t| \t| \t| 0 >  0.0011919100622289134\t--> 'True'\tCorrect Rej: 7, Miss: 10\n\t| \t| \t| \t| 0 >  0.0009966814916850214\t--> 'True'\tCorrect Rej: 2, Miss: 8\n"
p183
sg31
S"\t| 0 >  0.0025976822962382145\t--> 'False'\tFalse Alarm: 33, Hit: 50\n\t| \t| 0 >  0.0016123614960221984\t--> 'False'\tFalse Alarm: 16, Hit: 29\n\t| \t| \t| 0 >  0.0011919100622289134\t--> 'False'\tFalse Alarm: 7, Hit: 10\n\t| \t| \t| \t| 0 >  0.0009966814916850214\t--> 'False'\tFalse Alarm: 2, Hit: 8\n"
p184
sg33
S"\t| 0 >  0.0025976822962382145\t--> 'False'\tFalse Alarm: 33, Hit: 50\n\t| \t| 11 <  0.0021588817787694544\t--> 'True'\tCorrect Rej: 13, Miss: 23\n\t| \t| \t| 7 >  0.0020876087546442047\t--> 'True'\tCorrect Rej: 8, Miss: 15\n\t| \t| \t| \t| 23 >  0.001447899507559517\t--> 'False'\tFalse Alarm: 2, Hit: 6\n"
p185
sg35
S"\t| 0 >  0.0025976822962382145\t--> 'True'\tCorrect Rej: 33, Miss: 50\n\t| \t| 0 >  0.0016123614960221984\t--> 'True'\tCorrect Rej: 16, Miss: 29\n\t| \t| \t| 0 >  0.0011919100622289134\t--> 'True'\tCorrect Rej: 7, Miss: 10\n\t| \t| \t| \t| 28 <  0.0010621476002032147\t--> 'False'\tFalse Alarm: 2, Hit: 6\n"
p186
sg39
S"\t| 10 >  0.0023205987633383132\t--> 'False'\tFalse Alarm: 33, Hit: 51\n\t| \t| 36 <  0.0017937474162581038\t--> 'False'\tFalse Alarm: 14, Hit: 22\n\t| \t| \t| 6 >  0.0019149519441999652\t--> 'False'\tFalse Alarm: 9, Hit: 10\n\t| \t| \t| \t| 19 <  0.0017698112789784203\t--> 'False'\tFalse Alarm: 4, Hit: 16\n"
p187
sasg29
(lp188
F0.145
aF0.065
aF0.065
aF0.066
aF0.016
aF0.081
aF0.048
aF0.065
aF0.066
aF0.049
aF0.081
aF0.065
aF0.016
aF0.098
aF0.066
aF0.048
aF0.048
aF0.113
aF0.066
aF0.098
aF0.048
aF0.097
aF0.065
aF0.033
aF0.049
asg31
(lp189
F0.923
aF0.933
aF0.971
aF0.932
aF0.942
aF0.962
aF0.952
aF0.932
aF0.913
aF0.922
aF0.923
aF0.971
aF0.922
aF0.913
aF0.951
aF0.971
aF0.923
aF0.961
aF0.922
aF0.932
aF0.913
aF0.933
aF0.913
aF0.981
aF0.942
asg33
(lp190
F0.56
aF0.529
aF0.506
aF0.521
aF0.49
aF0.489
aF0.565
aF0.471
aF0.48
aF0.48
aF0.473
aF0.484
aF0.527
aF0.473
aF0.514
aF0.493
aF0.531
aF0.57
aF0.536
aF0.531
aF0.531
aF0.521
aF0.433
aF0.564
aF0.518
asg35
(lp191
F0.727
aF0.615
aF0.571
aF0.875
aF0.7
aF0.545
aF0.739
aF0.677
aF0.676
aF0.765
aF0.375
aF0.636
aF0.5
aF0.692
aF0.833
aF0.613
aF0.667
aF0.333
aF0.7
aF0.533
aF0.462
aF0.607
aF0.4
aF0.5
aF0.75
asg37
(lp192
F1717.1578328609467
aF1719.4876499176025
aF1719.6329050064087
aF1719.5482370853424
aF1630.3603312969208
aF1630.3045332431793
aF1630.2896950244904
aF1630.297371149063
aF1630.29784822464
aF1630.6416721343994
aF1630.3589401245117
aF1630.3264710903168
aF1630.2581479549408
aF1630.292866230011
aF1763.2978579998016
aF1763.3107030391693
aF1764.1536519527435
aF1763.8842070102692
aF1763.9730570316315
aF1649.214819908142
aF1649.191901922226
aF1648.7108228206635
aF1649.37979388237
aF1648.4668638706207
asg39
(lp193
F0.608
aF0.633
aF0.612
aF0.652
aF0.616
aF0.639
aF0.56
aF0.612
aF0.634
aF0.64
aF0.639
aF0.608
aF0.618
aF0.604
aF0.61
aF0.627
aF0.614
aF0.594
aF0.622
aF0.628
aF0.596
aF0.62
aF0.648
aF0.585
aF0.61
ass.